
BUILD/MPG.elf:     file format elf32-littlearm


Disassembly of section .text:

00000000 <g_pfnVectors>:
       0:	00 80 00 10 fd 00 00 00 29 54 00 00 2d 54 00 00     ........)T..-T..
	...
      1c:	ad d6 fe ef 00 00 00 00 00 00 00 00 00 00 00 00     ................
      2c:	2f 54 00 00 00 00 00 00 00 00 00 00 31 54 00 00     /T..........1T..
      3c:	8d 3f 00 00 2b 54 00 00 2b 54 00 00 2b 54 00 00     .?..+T..+T..+T..
      4c:	2b 54 00 00 2b 54 00 00 2b 54 00 00 2b 54 00 00     +T..+T..+T..+T..
      5c:	2b 54 00 00 2b 54 00 00 2b 54 00 00 2b 54 00 00     +T..+T..+T..+T..
      6c:	2b 54 00 00 2b 54 00 00 2b 54 00 00 2b 54 00 00     +T..+T..+T..+T..
      7c:	2b 54 00 00 2b 54 00 00 2b 54 00 00 c5 3c 00 00     +T..+T..+T...<..
      8c:	2b 54 00 00 2b 54 00 00 2b 54 00 00 2b 54 00 00     +T..+T..+T..+T..
      9c:	2b 54 00 00 2b 54 00 00 2b 54 00 00 2b 54 00 00     +T..+T..+T..+T..
      ac:	2b 54 00 00 2b 54 00 00 2b 54 00 00 2b 54 00 00     +T..+T..+T..+T..
      bc:	00 00 00 00                                         ....

000000c0 <__data_section_table>:
__data_section_table():
      c0:	0002ebf8 	.word	0x0002ebf8
      c4:	10000100 	.word	0x10000100
      c8:	000000b4 	.word	0x000000b4
      cc:	0002ebf8 	.word	0x0002ebf8
      d0:	20000000 	.word	0x20000000
      d4:	00000000 	.word	0x00000000
      d8:	0002ebf8 	.word	0x0002ebf8
      dc:	20004000 	.word	0x20004000
      e0:	00000000 	.word	0x00000000

000000e4 <__bss_section_table>:
__bss_section_table():
      e4:	100001b4 	.word	0x100001b4
      e8:	000059f8 	.word	0x000059f8
      ec:	20000000 	.word	0x20000000
      f0:	00000000 	.word	0x00000000
      f4:	20004000 	.word	0x20004000
      f8:	00000000 	.word	0x00000000

000000fc <ResetISR>:
ResetISR():
/home/manga/Projects/Pokitto/PyInSky/builds/1/PokittoLib/mbed-pokitto/targets/cmsis/TARGET_NXP/TARGET_LPC11U6X/TOOLCHAIN_GCC_ARM/TARGET_LPC11U68/startup_LPC11U68.cpp:138


/* Reset entry point*/
extern "C" void software_init_hook(void) __attribute__((weak));

AFTER_VECTORS void ResetISR(void) {
      fc:	b510      	push	{r4, lr}
      fe:	4c10      	ldr	r4, [pc, #64]	; (140 <ResetISR+0x44>)
/home/manga/Projects/Pokitto/PyInSky/builds/1/PokittoLib/mbed-pokitto/targets/cmsis/TARGET_NXP/TARGET_LPC11U6X/TOOLCHAIN_GCC_ARM/TARGET_LPC11U68/startup_LPC11U68.cpp:144
    unsigned int LoadAddr, ExeAddr, SectionLen;
    unsigned int *SectionTableAddr;

    SectionTableAddr = &__data_section_table;

    while (SectionTableAddr < &__data_section_table_end) {
     100:	4b10      	ldr	r3, [pc, #64]	; (144 <ResetISR+0x48>)
     102:	429c      	cmp	r4, r3
     104:	d206      	bcs.n	114 <ResetISR+0x18>
/home/manga/Projects/Pokitto/PyInSky/builds/1/PokittoLib/mbed-pokitto/targets/cmsis/TARGET_NXP/TARGET_LPC11U6X/TOOLCHAIN_GCC_ARM/TARGET_LPC11U68/startup_LPC11U68.cpp:148
        LoadAddr = *SectionTableAddr++;
        ExeAddr = *SectionTableAddr++;
        SectionLen = *SectionTableAddr++;
        data_init(LoadAddr, ExeAddr, SectionLen);
     106:	68a2      	ldr	r2, [r4, #8]
     108:	6861      	ldr	r1, [r4, #4]
     10a:	6820      	ldr	r0, [r4, #0]
     10c:	f005 f991 	bl	5432 <data_init>
     110:	340c      	adds	r4, #12
/home/manga/Projects/Pokitto/PyInSky/builds/1/PokittoLib/mbed-pokitto/targets/cmsis/TARGET_NXP/TARGET_LPC11U6X/TOOLCHAIN_GCC_ARM/TARGET_LPC11U68/startup_LPC11U68.cpp:144
    while (SectionTableAddr < &__data_section_table_end) {
     112:	e7f5      	b.n	100 <ResetISR+0x4>
/home/manga/Projects/Pokitto/PyInSky/builds/1/PokittoLib/mbed-pokitto/targets/cmsis/TARGET_NXP/TARGET_LPC11U6X/TOOLCHAIN_GCC_ARM/TARGET_LPC11U68/startup_LPC11U68.cpp:150
    }
    while (SectionTableAddr < &__bss_section_table_end) {
     114:	4b0c      	ldr	r3, [pc, #48]	; (148 <ResetISR+0x4c>)
     116:	429c      	cmp	r4, r3
     118:	d205      	bcs.n	126 <ResetISR+0x2a>
/home/manga/Projects/Pokitto/PyInSky/builds/1/PokittoLib/mbed-pokitto/targets/cmsis/TARGET_NXP/TARGET_LPC11U6X/TOOLCHAIN_GCC_ARM/TARGET_LPC11U68/startup_LPC11U68.cpp:153
        ExeAddr = *SectionTableAddr++;
        SectionLen = *SectionTableAddr++;
        bss_init(ExeAddr, SectionLen);
     11a:	6861      	ldr	r1, [r4, #4]
     11c:	6820      	ldr	r0, [r4, #0]
     11e:	f005 f994 	bl	544a <bss_init>
     122:	3408      	adds	r4, #8
/home/manga/Projects/Pokitto/PyInSky/builds/1/PokittoLib/mbed-pokitto/targets/cmsis/TARGET_NXP/TARGET_LPC11U6X/TOOLCHAIN_GCC_ARM/TARGET_LPC11U68/startup_LPC11U68.cpp:150
    while (SectionTableAddr < &__bss_section_table_end) {
     124:	e7f6      	b.n	114 <ResetISR+0x18>
/home/manga/Projects/Pokitto/PyInSky/builds/1/PokittoLib/mbed-pokitto/targets/cmsis/TARGET_NXP/TARGET_LPC11U6X/TOOLCHAIN_GCC_ARM/TARGET_LPC11U68/startup_LPC11U68.cpp:156
    }

    SystemInit();
     126:	f005 f9bb 	bl	54a0 <SystemInit>
/home/manga/Projects/Pokitto/PyInSky/builds/1/PokittoLib/mbed-pokitto/targets/cmsis/TARGET_NXP/TARGET_LPC11U6X/TOOLCHAIN_GCC_ARM/TARGET_LPC11U68/startup_LPC11U68.cpp:157
    if (software_init_hook)
     12a:	4b08      	ldr	r3, [pc, #32]	; (14c <ResetISR+0x50>)
     12c:	2b00      	cmp	r3, #0
     12e:	d002      	beq.n	136 <ResetISR+0x3a>
/home/manga/Projects/Pokitto/PyInSky/builds/1/PokittoLib/mbed-pokitto/targets/cmsis/TARGET_NXP/TARGET_LPC11U6X/TOOLCHAIN_GCC_ARM/TARGET_LPC11U68/startup_LPC11U68.cpp:158
        software_init_hook();
     130:	e000      	b.n	134 <ResetISR+0x38>
     132:	bf00      	nop
     134:	e7fe      	b.n	134 <ResetISR+0x38>
/home/manga/Projects/Pokitto/PyInSky/builds/1/PokittoLib/mbed-pokitto/targets/cmsis/TARGET_NXP/TARGET_LPC11U6X/TOOLCHAIN_GCC_ARM/TARGET_LPC11U68/startup_LPC11U68.cpp:160
    else {
        __libc_init_array();
     136:	f022 fcb9 	bl	22aac <__libc_init_array>
/home/manga/Projects/Pokitto/PyInSky/builds/1/PokittoLib/mbed-pokitto/targets/cmsis/TARGET_NXP/TARGET_LPC11U6X/TOOLCHAIN_GCC_ARM/TARGET_LPC11U68/startup_LPC11U68.cpp:161
        main();
     13a:	f005 f8eb 	bl	5314 <__wrap_main>
     13e:	e7f9      	b.n	134 <ResetISR+0x38>
     140:	000000c0 	.word	0x000000c0
     144:	000000e4 	.word	0x000000e4
     148:	000000fc 	.word	0x000000fc
     14c:	00000000 	.word	0x00000000

00000150 <__do_global_dtors_aux>:
__do_global_dtors_aux():
     150:	b510      	push	{r4, lr}
     152:	4c06      	ldr	r4, [pc, #24]	; (16c <__do_global_dtors_aux+0x1c>)
     154:	7823      	ldrb	r3, [r4, #0]
     156:	2b00      	cmp	r3, #0
     158:	d107      	bne.n	16a <__do_global_dtors_aux+0x1a>
     15a:	4b05      	ldr	r3, [pc, #20]	; (170 <__do_global_dtors_aux+0x20>)
     15c:	2b00      	cmp	r3, #0
     15e:	d002      	beq.n	166 <__do_global_dtors_aux+0x16>
     160:	4804      	ldr	r0, [pc, #16]	; (174 <__do_global_dtors_aux+0x24>)
     162:	e000      	b.n	166 <__do_global_dtors_aux+0x16>
     164:	bf00      	nop
     166:	2301      	movs	r3, #1
     168:	7023      	strb	r3, [r4, #0]
     16a:	bd10      	pop	{r4, pc}
     16c:	100001b4 	.word	0x100001b4
     170:	00000000 	.word	0x00000000
     174:	0002ebf8 	.word	0x0002ebf8

00000178 <frame_dummy>:
frame_dummy():
     178:	4b04      	ldr	r3, [pc, #16]	; (18c <frame_dummy+0x14>)
     17a:	b510      	push	{r4, lr}
     17c:	2b00      	cmp	r3, #0
     17e:	d003      	beq.n	188 <frame_dummy+0x10>
     180:	4903      	ldr	r1, [pc, #12]	; (190 <frame_dummy+0x18>)
     182:	4804      	ldr	r0, [pc, #16]	; (194 <frame_dummy+0x1c>)
     184:	e000      	b.n	188 <frame_dummy+0x10>
     186:	bf00      	nop
     188:	bd10      	pop	{r4, pc}
     18a:	46c0      	nop			; (mov r8, r8)
     18c:	00000000 	.word	0x00000000
     190:	100001b8 	.word	0x100001b8
     194:	0002ebf8 	.word	0x0002ebf8

00000198 <_ZN7Pokitto9Backlight5beginEv>:
_ZN7Pokitto9Backlight5beginEv():
/home/manga/Projects/Pokitto/PyInSky/builds/1/PokittoLib/POKITTO_CORE/PokittoBacklight.cpp:49
uint8_t Backlight::backlightMin, Backlight::backlightMax;
uint16_t Backlight::ambientLightMin, Backlight::ambientLightMax;

void Backlight::begin() {

}
     198:	4770      	bx	lr

0000019a <_ZN7Pokitto9Backlight3setEh>:
_ZN7Pokitto9Backlight3setEh():
/home/manga/Projects/Pokitto/PyInSky/builds/1/PokittoLib/POKITTO_CORE/PokittoBacklight.cpp:53

void Backlight::set(uint8_t value) {

}
     19a:	4770      	bx	lr

0000019c <_ZN7Pokitto9Backlight6updateEv>:
_ZN7Pokitto9Backlight6updateEv():
     19c:	4770      	bx	lr
     19e:	Address 0x000000000000019e is out of bounds.


000001a0 <_ZN7Pokitto7Battery5beginEv>:
_ZN7Pokitto7Battery5beginEv():
/home/manga/Projects/Pokitto/PyInSky/builds/1/PokittoLib/POKITTO_CORE/PokittoBattery.cpp:51

#ifndef POK_SIM
AnalogIn BatLevelPin(P0_23);
#endif

void Battery::begin() {
     1a0:	b510      	push	{r4, lr}
_ZN4mbed8AnalogIn4readEv():
/home/manga/Projects/Pokitto/PyInSky/builds/1/./PokittoLib/mbed-pokitto/api/AnalogIn.h:64
    /** Read the input voltage, represented as a float in the range [0.0, 1.0]
     *
     * @returns A floating-point value representing the current input voltage, measured as a percentage
     */
    float read() {
        return analogin_read(&_adc);
     1a2:	4805      	ldr	r0, [pc, #20]	; (1b8 <_ZN7Pokitto7Battery5beginEv+0x18>)
     1a4:	f005 faa4 	bl	56f0 <analogin_read>
_ZN7Pokitto7Battery5beginEv():
/home/manga/Projects/Pokitto/PyInSky/builds/1/PokittoLib/POKITTO_CORE/PokittoBattery.cpp:53
	#ifndef POK_SIM
    level = BatLevelPin * 0xFF;
     1a8:	4904      	ldr	r1, [pc, #16]	; (1bc <_ZN7Pokitto7Battery5beginEv+0x1c>)
     1aa:	f023 fc2f 	bl	23a0c <__aeabi_fmul>
     1ae:	f022 ffe1 	bl	23174 <__aeabi_f2uiz>
     1b2:	4b03      	ldr	r3, [pc, #12]	; (1c0 <_ZN7Pokitto7Battery5beginEv+0x20>)
     1b4:	7018      	strb	r0, [r3, #0]
/home/manga/Projects/Pokitto/PyInSky/builds/1/PokittoLib/POKITTO_CORE/PokittoBattery.cpp:58
	#else
	//ToDo - simulate the battery on the simulator
	level = 0;
	#endif
}
     1b6:	bd10      	pop	{r4, pc}
     1b8:	100001d0 	.word	0x100001d0
     1bc:	437f0000 	.word	0x437f0000
     1c0:	100001d1 	.word	0x100001d1

000001c4 <_ZN7Pokitto7Battery6updateEv>:
_ZN7Pokitto7Battery6updateEv():
     1c4:	b510      	push	{r4, lr}
     1c6:	f7ff ffeb 	bl	1a0 <_ZN7Pokitto7Battery5beginEv>
     1ca:	bd10      	pop	{r4, pc}

000001cc <_GLOBAL__sub_I__ZN7Pokitto7Battery4showE>:
_GLOBAL__sub_I__ZN7Pokitto7Battery4showE():
/home/manga/Projects/Pokitto/PyInSky/builds/1/PokittoLib/POKITTO_CORE/PokittoBattery.cpp:67
    //ToDo - make a real function
    level = BatLevelPin * 0xFF;
	#else
	//ToDo - simulate the battery on the simulator
	#endif
}
     1cc:	b510      	push	{r4, lr}
_ZN4mbed8AnalogInC4E7PinName():
/home/manga/Projects/Pokitto/PyInSky/builds/1/./PokittoLib/mbed-pokitto/api/AnalogIn.h:56
        analogin_init(&_adc, pin);
     1ce:	4902      	ldr	r1, [pc, #8]	; (1d8 <_GLOBAL__sub_I__ZN7Pokitto7Battery4showE+0xc>)
     1d0:	4802      	ldr	r0, [pc, #8]	; (1dc <_GLOBAL__sub_I__ZN7Pokitto7Battery4showE+0x10>)
     1d2:	f005 fa35 	bl	5640 <analogin_init>
_GLOBAL__sub_I__ZN7Pokitto7Battery4showE():
/home/manga/Projects/Pokitto/PyInSky/builds/1/PokittoLib/POKITTO_CORE/PokittoBattery.cpp:67
     1d6:	bd10      	pop	{r4, pc}
     1d8:	00002e5c 	.word	0x00002e5c
     1dc:	100001d0 	.word	0x100001d0

000001e0 <_ZN7Pokitto7Buttons5beginEv>:
_ZN7Pokitto7Buttons5beginEv():
/home/manga/Projects/Pokitto/PyInSky/builds/1/PokittoLib/POKITTO_CORE/PokittoButtons.cpp:49
uint8_t Buttons::buttons_held;
uint8_t Buttons::buttons_released; // from LSB up,down,left,right,a,b,c
uint16_t Buttons::cHWLongPress = CHWLONGPRESSTIMEOUT;


void Buttons::begin() {
     1e0:	b510      	push	{r4, lr}
/home/manga/Projects/Pokitto/PyInSky/builds/1/PokittoLib/POKITTO_CORE/PokittoButtons.cpp:51
    #ifndef POK_SIM
    Pokitto::initButtons();
     1e2:	f003 f93b 	bl	345c <_ZN7Pokitto11initButtonsEv>
/home/manga/Projects/Pokitto/PyInSky/builds/1/PokittoLib/POKITTO_CORE/PokittoButtons.cpp:53
    #endif // POK_SIM
}
     1e6:	bd10      	pop	{r4, pc}

000001e8 <_ZN7Pokitto7Buttons6updateEv>:
_ZN7Pokitto7Buttons6updateEv():
/home/manga/Projects/Pokitto/PyInSky/builds/1/PokittoLib/POKITTO_CORE/PokittoButtons.cpp:55

void Buttons::update() {
     1e8:	b570      	push	{r4, r5, r6, lr}
     1ea:	2300      	movs	r3, #0
/home/manga/Projects/Pokitto/PyInSky/builds/1/PokittoLib/POKITTO_CORE/PokittoButtons.cpp:71
            if (states[thisButton] == 0)//button idle
                continue;
            if (states[thisButton] == 0xFF)//if previously released
                states[thisButton] = 0; //set to idle
            else
                states[thisButton] = 0xFF; //button just released
     1ec:	25ff      	movs	r5, #255	; 0xff
/home/manga/Projects/Pokitto/PyInSky/builds/1/PokittoLib/POKITTO_CORE/PokittoButtons.cpp:64
            if (states[thisButton]==0xFF) states[thisButton]=2; // PREVENT WRAPAROUND!!!!
     1ee:	2602      	movs	r6, #2
     1f0:	490c      	ldr	r1, [pc, #48]	; (224 <_ZN7Pokitto7Buttons6updateEv+0x3c>)
/home/manga/Projects/Pokitto/PyInSky/builds/1/PokittoLib/POKITTO_CORE/PokittoButtons.cpp:62
        if (Pokitto::heldStates[thisButton]) { //if button pressed
     1f2:	4c0d      	ldr	r4, [pc, #52]	; (228 <_ZN7Pokitto7Buttons6updateEv+0x40>)
     1f4:	5ce0      	ldrb	r0, [r4, r3]
     1f6:	5c5a      	ldrb	r2, [r3, r1]
     1f8:	2800      	cmp	r0, #0
     1fa:	d00a      	beq.n	212 <_ZN7Pokitto7Buttons6updateEv+0x2a>
/home/manga/Projects/Pokitto/PyInSky/builds/1/PokittoLib/POKITTO_CORE/PokittoButtons.cpp:63
            states[thisButton]++; //increase button hold time
     1fc:	3201      	adds	r2, #1
     1fe:	b2d2      	uxtb	r2, r2
/home/manga/Projects/Pokitto/PyInSky/builds/1/PokittoLib/POKITTO_CORE/PokittoButtons.cpp:64
            if (states[thisButton]==0xFF) states[thisButton]=2; // PREVENT WRAPAROUND!!!!
     200:	2aff      	cmp	r2, #255	; 0xff
     202:	d004      	beq.n	20e <_ZN7Pokitto7Buttons6updateEv+0x26>
/home/manga/Projects/Pokitto/PyInSky/builds/1/PokittoLib/POKITTO_CORE/PokittoButtons.cpp:63
            states[thisButton]++; //increase button hold time
     204:	545a      	strb	r2, [r3, r1]
     206:	3301      	adds	r3, #1
/home/manga/Projects/Pokitto/PyInSky/builds/1/PokittoLib/POKITTO_CORE/PokittoButtons.cpp:61 (discriminator 2)
    for (uint8_t thisButton = 0; thisButton < NUM_BTN; thisButton++) {
     208:	2b07      	cmp	r3, #7
     20a:	d1f3      	bne.n	1f4 <_ZN7Pokitto7Buttons6updateEv+0xc>
/home/manga/Projects/Pokitto/PyInSky/builds/1/PokittoLib/POKITTO_CORE/PokittoButtons.cpp:112
                states[thisButton] = 0xFF; //button just released
        }
        }

        #endif // POK_SIM
}
     20c:	bd70      	pop	{r4, r5, r6, pc}
/home/manga/Projects/Pokitto/PyInSky/builds/1/PokittoLib/POKITTO_CORE/PokittoButtons.cpp:64 (discriminator 1)
            if (states[thisButton]==0xFF) states[thisButton]=2; // PREVENT WRAPAROUND!!!!
     20e:	545e      	strb	r6, [r3, r1]
     210:	e7f9      	b.n	206 <_ZN7Pokitto7Buttons6updateEv+0x1e>
/home/manga/Projects/Pokitto/PyInSky/builds/1/PokittoLib/POKITTO_CORE/PokittoButtons.cpp:66
            if (states[thisButton] == 0)//button idle
     212:	2a00      	cmp	r2, #0
     214:	d0f7      	beq.n	206 <_ZN7Pokitto7Buttons6updateEv+0x1e>
/home/manga/Projects/Pokitto/PyInSky/builds/1/PokittoLib/POKITTO_CORE/PokittoButtons.cpp:68
            if (states[thisButton] == 0xFF)//if previously released
     216:	2aff      	cmp	r2, #255	; 0xff
     218:	d101      	bne.n	21e <_ZN7Pokitto7Buttons6updateEv+0x36>
/home/manga/Projects/Pokitto/PyInSky/builds/1/PokittoLib/POKITTO_CORE/PokittoButtons.cpp:69
                states[thisButton] = 0; //set to idle
     21a:	5458      	strb	r0, [r3, r1]
     21c:	e7f3      	b.n	206 <_ZN7Pokitto7Buttons6updateEv+0x1e>
/home/manga/Projects/Pokitto/PyInSky/builds/1/PokittoLib/POKITTO_CORE/PokittoButtons.cpp:71
                states[thisButton] = 0xFF; //button just released
     21e:	545d      	strb	r5, [r3, r1]
     220:	e7f1      	b.n	206 <_ZN7Pokitto7Buttons6updateEv+0x1e>
     222:	46c0      	nop			; (mov r8, r8)
     224:	100001d5 	.word	0x100001d5
     228:	10001b24 	.word	0x10001b24

0000022c <_ZN7Pokitto7Buttons7pressedEh>:
_ZN7Pokitto7Buttons7pressedEh():
/home/manga/Projects/Pokitto/PyInSky/builds/1/PokittoLib/POKITTO_CORE/PokittoButtons.cpp:119
/*
 * Returns true when 'button' is pressed.
 * The button has to be released for it to be triggered again.
 */
bool Buttons::pressed(uint8_t button) {
    if (states[button] == 1)
     22c:	4b03      	ldr	r3, [pc, #12]	; (23c <_ZN7Pokitto7Buttons7pressedEh+0x10>)
     22e:	5c18      	ldrb	r0, [r3, r0]
     230:	3801      	subs	r0, #1
     232:	4243      	negs	r3, r0
     234:	4158      	adcs	r0, r3
     236:	b2c0      	uxtb	r0, r0
/home/manga/Projects/Pokitto/PyInSky/builds/1/PokittoLib/POKITTO_CORE/PokittoButtons.cpp:123
        return true;
    else
        return false;
}
     238:	4770      	bx	lr
     23a:	46c0      	nop			; (mov r8, r8)
     23c:	100001d5 	.word	0x100001d5

00000240 <_ZN7Pokitto7Buttons8releasedEh>:
_ZN7Pokitto7Buttons8releasedEh():
/home/manga/Projects/Pokitto/PyInSky/builds/1/PokittoLib/POKITTO_CORE/PokittoButtons.cpp:129

/*
 * return true if 'button' is released
 */
bool Buttons::released(uint8_t button) {
    if (states[button] == 0xFF)
     240:	4b03      	ldr	r3, [pc, #12]	; (250 <_ZN7Pokitto7Buttons8releasedEh+0x10>)
     242:	5c18      	ldrb	r0, [r3, r0]
     244:	38ff      	subs	r0, #255	; 0xff
     246:	4243      	negs	r3, r0
     248:	4158      	adcs	r0, r3
     24a:	b2c0      	uxtb	r0, r0
/home/manga/Projects/Pokitto/PyInSky/builds/1/PokittoLib/POKITTO_CORE/PokittoButtons.cpp:133
        return true;
    else
        return false;
}
     24c:	4770      	bx	lr
     24e:	46c0      	nop			; (mov r8, r8)
     250:	100001d5 	.word	0x100001d5

00000254 <_ZN7Pokitto7Buttons4heldEhh>:
_ZN7Pokitto7Buttons4heldEhh():
/home/manga/Projects/Pokitto/PyInSky/builds/1/PokittoLib/POKITTO_CORE/PokittoButtons.cpp:142
 * @param button The button's ID
 * @param time How much frames button must be held, between 1 and 254.
 * @return true when 'button' is held for 'time' frames
 */
bool Buttons::held(uint8_t button, uint8_t time){
    if(states[button] == (time+1))
     254:	4b03      	ldr	r3, [pc, #12]	; (264 <_ZN7Pokitto7Buttons4heldEhh+0x10>)
     256:	3101      	adds	r1, #1
     258:	5c1b      	ldrb	r3, [r3, r0]
     25a:	1a59      	subs	r1, r3, r1
     25c:	4248      	negs	r0, r1
     25e:	4148      	adcs	r0, r1
     260:	b2c0      	uxtb	r0, r0
/home/manga/Projects/Pokitto/PyInSky/builds/1/PokittoLib/POKITTO_CORE/PokittoButtons.cpp:146
        return true;
    else
        return false;
}
     262:	4770      	bx	lr
     264:	100001d5 	.word	0x100001d5

00000268 <_ZN7Pokitto7Buttons11pollButtonsEv>:
_ZN7Pokitto7Buttons11pollButtonsEv():
/home/manga/Projects/Pokitto/PyInSky/builds/1/PokittoLib/POKITTO_CORE/PokittoButtons.cpp:183
void Buttons::pollButtons() {
    #ifdef POK_SIM
    simulator.pollButtons();
    #else
    uint8_t buttons_state_old = buttons_state;
    buttons_state = 0; // clear all
     268:	2200      	movs	r2, #0
/home/manga/Projects/Pokitto/PyInSky/builds/1/PokittoLib/POKITTO_CORE/PokittoButtons.cpp:178
void Buttons::pollButtons() {
     26a:	b510      	push	{r4, lr}
/home/manga/Projects/Pokitto/PyInSky/builds/1/PokittoLib/POKITTO_CORE/PokittoButtons.cpp:182
    uint8_t buttons_state_old = buttons_state;
     26c:	4b1d      	ldr	r3, [pc, #116]	; (2e4 <_ZN7Pokitto7Buttons11pollButtonsEv+0x7c>)
     26e:	7819      	ldrb	r1, [r3, #0]
/home/manga/Projects/Pokitto/PyInSky/builds/1/PokittoLib/POKITTO_CORE/PokittoButtons.cpp:183
    buttons_state = 0; // clear all
     270:	701a      	strb	r2, [r3, #0]
_ZN7Pokitto7Buttons5upBtnEv():
/home/manga/Projects/Pokitto/PyInSky/builds/1/PokittoLib/POKITTO_CORE/PokittoButtons.cpp:243

uint8_t Buttons::upBtn() {
    #ifdef POK_SIM
    return simulator.upBtn();
    #else
    return Pokitto::heldStates[BTN_UP];
     272:	4a1d      	ldr	r2, [pc, #116]	; (2e8 <_ZN7Pokitto7Buttons11pollButtonsEv+0x80>)
_ZN7Pokitto7Buttons11pollButtonsEv():
/home/manga/Projects/Pokitto/PyInSky/builds/1/PokittoLib/POKITTO_CORE/PokittoButtons.cpp:184
    if (upBtn()) buttons_state |= (1<<UPBIT);
     274:	7850      	ldrb	r0, [r2, #1]
     276:	2800      	cmp	r0, #0
     278:	d001      	beq.n	27e <_ZN7Pokitto7Buttons11pollButtonsEv+0x16>
/home/manga/Projects/Pokitto/PyInSky/builds/1/PokittoLib/POKITTO_CORE/PokittoButtons.cpp:184 (discriminator 1)
     27a:	2001      	movs	r0, #1
     27c:	7018      	strb	r0, [r3, #0]
/home/manga/Projects/Pokitto/PyInSky/builds/1/PokittoLib/POKITTO_CORE/PokittoButtons.cpp:185
    if (downBtn()) buttons_state |= (1<<DOWNBIT);
     27e:	78d0      	ldrb	r0, [r2, #3]
     280:	2800      	cmp	r0, #0
     282:	d003      	beq.n	28c <_ZN7Pokitto7Buttons11pollButtonsEv+0x24>
/home/manga/Projects/Pokitto/PyInSky/builds/1/PokittoLib/POKITTO_CORE/PokittoButtons.cpp:185 (discriminator 1)
     284:	2002      	movs	r0, #2
     286:	781c      	ldrb	r4, [r3, #0]
     288:	4320      	orrs	r0, r4
     28a:	7018      	strb	r0, [r3, #0]
/home/manga/Projects/Pokitto/PyInSky/builds/1/PokittoLib/POKITTO_CORE/PokittoButtons.cpp:186
    if (leftBtn()) buttons_state |= (1<<LEFTBIT);
     28c:	7810      	ldrb	r0, [r2, #0]
     28e:	2800      	cmp	r0, #0
     290:	d003      	beq.n	29a <_ZN7Pokitto7Buttons11pollButtonsEv+0x32>
/home/manga/Projects/Pokitto/PyInSky/builds/1/PokittoLib/POKITTO_CORE/PokittoButtons.cpp:186 (discriminator 1)
     292:	2004      	movs	r0, #4
     294:	781c      	ldrb	r4, [r3, #0]
     296:	4320      	orrs	r0, r4
     298:	7018      	strb	r0, [r3, #0]
/home/manga/Projects/Pokitto/PyInSky/builds/1/PokittoLib/POKITTO_CORE/PokittoButtons.cpp:187
    if (rightBtn()) buttons_state |= (1<<RIGHTBIT);
     29a:	7890      	ldrb	r0, [r2, #2]
     29c:	2800      	cmp	r0, #0
     29e:	d003      	beq.n	2a8 <_ZN7Pokitto7Buttons11pollButtonsEv+0x40>
/home/manga/Projects/Pokitto/PyInSky/builds/1/PokittoLib/POKITTO_CORE/PokittoButtons.cpp:187 (discriminator 1)
     2a0:	2008      	movs	r0, #8
     2a2:	781c      	ldrb	r4, [r3, #0]
     2a4:	4320      	orrs	r0, r4
     2a6:	7018      	strb	r0, [r3, #0]
/home/manga/Projects/Pokitto/PyInSky/builds/1/PokittoLib/POKITTO_CORE/PokittoButtons.cpp:188
    if (aBtn()) buttons_state |= (1<<ABIT);
     2a8:	7910      	ldrb	r0, [r2, #4]
     2aa:	2800      	cmp	r0, #0
     2ac:	d003      	beq.n	2b6 <_ZN7Pokitto7Buttons11pollButtonsEv+0x4e>
/home/manga/Projects/Pokitto/PyInSky/builds/1/PokittoLib/POKITTO_CORE/PokittoButtons.cpp:188 (discriminator 1)
     2ae:	2010      	movs	r0, #16
     2b0:	781c      	ldrb	r4, [r3, #0]
     2b2:	4320      	orrs	r0, r4
     2b4:	7018      	strb	r0, [r3, #0]
/home/manga/Projects/Pokitto/PyInSky/builds/1/PokittoLib/POKITTO_CORE/PokittoButtons.cpp:189
    if (bBtn()) buttons_state |= (1<<BBIT);
     2b6:	7950      	ldrb	r0, [r2, #5]
     2b8:	2800      	cmp	r0, #0
     2ba:	d003      	beq.n	2c4 <_ZN7Pokitto7Buttons11pollButtonsEv+0x5c>
/home/manga/Projects/Pokitto/PyInSky/builds/1/PokittoLib/POKITTO_CORE/PokittoButtons.cpp:189 (discriminator 1)
     2bc:	2020      	movs	r0, #32
     2be:	781c      	ldrb	r4, [r3, #0]
     2c0:	4320      	orrs	r0, r4
     2c2:	7018      	strb	r0, [r3, #0]
/home/manga/Projects/Pokitto/PyInSky/builds/1/PokittoLib/POKITTO_CORE/PokittoButtons.cpp:190
    if (cBtn()) buttons_state |= (1<<CBIT);
     2c4:	7992      	ldrb	r2, [r2, #6]
     2c6:	2a00      	cmp	r2, #0
     2c8:	d003      	beq.n	2d2 <_ZN7Pokitto7Buttons11pollButtonsEv+0x6a>
/home/manga/Projects/Pokitto/PyInSky/builds/1/PokittoLib/POKITTO_CORE/PokittoButtons.cpp:190 (discriminator 1)
     2ca:	2240      	movs	r2, #64	; 0x40
     2cc:	7818      	ldrb	r0, [r3, #0]
     2ce:	4302      	orrs	r2, r0
     2d0:	701a      	strb	r2, [r3, #0]
/home/manga/Projects/Pokitto/PyInSky/builds/1/PokittoLib/POKITTO_CORE/PokittoButtons.cpp:191
    buttons_held = buttons_state & buttons_state_old; // only if both 1, end result is 1
     2d2:	0008      	movs	r0, r1
     2d4:	781b      	ldrb	r3, [r3, #0]
     2d6:	4a05      	ldr	r2, [pc, #20]	; (2ec <_ZN7Pokitto7Buttons11pollButtonsEv+0x84>)
     2d8:	4018      	ands	r0, r3
/home/manga/Projects/Pokitto/PyInSky/builds/1/PokittoLib/POKITTO_CORE/PokittoButtons.cpp:192
    buttons_released = ~buttons_state & buttons_state_old; // if now zero, then 1 AND previous 1 = 1
     2da:	4399      	bics	r1, r3
     2dc:	4b04      	ldr	r3, [pc, #16]	; (2f0 <_ZN7Pokitto7Buttons11pollButtonsEv+0x88>)
/home/manga/Projects/Pokitto/PyInSky/builds/1/PokittoLib/POKITTO_CORE/PokittoButtons.cpp:191
    buttons_held = buttons_state & buttons_state_old; // only if both 1, end result is 1
     2de:	7010      	strb	r0, [r2, #0]
/home/manga/Projects/Pokitto/PyInSky/builds/1/PokittoLib/POKITTO_CORE/PokittoButtons.cpp:192
    buttons_released = ~buttons_state & buttons_state_old; // if now zero, then 1 AND previous 1 = 1
     2e0:	7019      	strb	r1, [r3, #0]
/home/manga/Projects/Pokitto/PyInSky/builds/1/PokittoLib/POKITTO_CORE/PokittoButtons.cpp:194
}
     2e2:	bd10      	pop	{r4, pc}
     2e4:	100001d3 	.word	0x100001d3
     2e8:	10001b24 	.word	0x10001b24
     2ec:	100001d2 	.word	0x100001d2
     2f0:	100001d4 	.word	0x100001d4

000002f4 <_ZN7Pokitto7Buttons4aBtnEv>:
_ZN7Pokitto7Buttons4aBtnEv():
/home/manga/Projects/Pokitto/PyInSky/builds/1/PokittoLib/POKITTO_CORE/PokittoButtons.cpp:200
    return Pokitto::heldStates[BTN_A];
     2f4:	4b01      	ldr	r3, [pc, #4]	; (2fc <_ZN7Pokitto7Buttons4aBtnEv+0x8>)
     2f6:	7918      	ldrb	r0, [r3, #4]
/home/manga/Projects/Pokitto/PyInSky/builds/1/PokittoLib/POKITTO_CORE/PokittoButtons.cpp:202
}
     2f8:	4770      	bx	lr
     2fa:	46c0      	nop			; (mov r8, r8)
     2fc:	10001b24 	.word	0x10001b24

00000300 <_ZN7Pokitto7Buttons5upBtnEv>:
_ZN7Pokitto7Buttons5upBtnEv():
/home/manga/Projects/Pokitto/PyInSky/builds/1/PokittoLib/POKITTO_CORE/PokittoButtons.cpp:243
    return Pokitto::heldStates[BTN_UP];
     300:	4b01      	ldr	r3, [pc, #4]	; (308 <_ZN7Pokitto7Buttons5upBtnEv+0x8>)
     302:	7858      	ldrb	r0, [r3, #1]
/home/manga/Projects/Pokitto/PyInSky/builds/1/PokittoLib/POKITTO_CORE/PokittoButtons.cpp:245
    #endif // POK_SIM
}
     304:	4770      	bx	lr
     306:	46c0      	nop			; (mov r8, r8)
     308:	10001b24 	.word	0x10001b24

0000030c <_ZN7Pokitto7Buttons7downBtnEv>:
_ZN7Pokitto7Buttons7downBtnEv():
/home/manga/Projects/Pokitto/PyInSky/builds/1/PokittoLib/POKITTO_CORE/PokittoButtons.cpp:251

uint8_t Buttons::downBtn() {
    #ifdef POK_SIM
    return simulator.downBtn();
    #else
    return Pokitto::heldStates[BTN_DOWN];
     30c:	4b01      	ldr	r3, [pc, #4]	; (314 <_ZN7Pokitto7Buttons7downBtnEv+0x8>)
     30e:	78d8      	ldrb	r0, [r3, #3]
/home/manga/Projects/Pokitto/PyInSky/builds/1/PokittoLib/POKITTO_CORE/PokittoButtons.cpp:253
    #endif // POK_SIM
}
     310:	4770      	bx	lr
     312:	46c0      	nop			; (mov r8, r8)
     314:	10001b24 	.word	0x10001b24

00000318 <_ZN7Pokitto7ConsoleC1Ev>:
_ZN7Pokitto7ConsoleC2Ev():
/home/manga/Projects/Pokitto/PyInSky/builds/1/PokittoLib/POKITTO_CORE/PokittoConsole.cpp:58
uint8_t Console::mode;
uint8_t Console::visible;
unsigned char* Console::font;

Console::Console() {
    conslast=consfirst=conspointer=conscounter=0;
     318:	2300      	movs	r3, #0
     31a:	4a09      	ldr	r2, [pc, #36]	; (340 <_ZN7Pokitto7ConsoleC1Ev+0x28>)
     31c:	8013      	strh	r3, [r2, #0]
     31e:	4a09      	ldr	r2, [pc, #36]	; (344 <_ZN7Pokitto7ConsoleC1Ev+0x2c>)
     320:	7013      	strb	r3, [r2, #0]
     322:	4a09      	ldr	r2, [pc, #36]	; (348 <_ZN7Pokitto7ConsoleC1Ev+0x30>)
     324:	7013      	strb	r3, [r2, #0]
     326:	4a09      	ldr	r2, [pc, #36]	; (34c <_ZN7Pokitto7ConsoleC1Ev+0x34>)
     328:	7013      	strb	r3, [r2, #0]
/home/manga/Projects/Pokitto/PyInSky/builds/1/PokittoLib/POKITTO_CORE/PokittoConsole.cpp:59
    color=0xFFFF;
     32a:	2201      	movs	r2, #1
     32c:	4b08      	ldr	r3, [pc, #32]	; (350 <_ZN7Pokitto7ConsoleC1Ev+0x38>)
     32e:	4252      	negs	r2, r2
     330:	801a      	strh	r2, [r3, #0]
/home/manga/Projects/Pokitto/PyInSky/builds/1/PokittoLib/POKITTO_CORE/PokittoConsole.cpp:60
    font=(unsigned char*)fontMini;
     332:	4b08      	ldr	r3, [pc, #32]	; (354 <_ZN7Pokitto7ConsoleC1Ev+0x3c>)
     334:	4a08      	ldr	r2, [pc, #32]	; (358 <_ZN7Pokitto7ConsoleC1Ev+0x40>)
     336:	601a      	str	r2, [r3, #0]
/home/manga/Projects/Pokitto/PyInSky/builds/1/PokittoLib/POKITTO_CORE/PokittoConsole.cpp:62
    #if POK_CONSOLE_VISIBLE_AT_STARTUP > 0
        mode=CONS_OVERLAY|CONS_VISIBLE;
     338:	2209      	movs	r2, #9
     33a:	4b08      	ldr	r3, [pc, #32]	; (35c <_ZN7Pokitto7ConsoleC1Ev+0x44>)
     33c:	701a      	strb	r2, [r3, #0]
/home/manga/Projects/Pokitto/PyInSky/builds/1/PokittoLib/POKITTO_CORE/PokittoConsole.cpp:66
    #else
        mode=CONS_OVERLAY;//|CONS_VISIBLE;
    #endif
}
     33e:	4770      	bx	lr
     340:	100001dc 	.word	0x100001dc
     344:	100001de 	.word	0x100001de
     348:	100001e9 	.word	0x100001e9
     34c:	100001e8 	.word	0x100001e8
     350:	100001e6 	.word	0x100001e6
     354:	100001e0 	.word	0x100001e0
     358:	000254c4 	.word	0x000254c4
     35c:	100001e4 	.word	0x100001e4

00000360 <_GLOBAL__sub_I_pConsole>:
_GLOBAL__sub_I_pConsole():
/home/manga/Projects/Pokitto/PyInSky/builds/1/PokittoLib/POKITTO_CORE/PokittoConsole.cpp:308
    _display->font = oldfont;
    _display->fontSize = oldsize;
    _display->cursorX = oldx;
    _display->cursorY = oldy;
    _display->directcolor = oldcolor;
}
     360:	b510      	push	{r4, lr}
__static_initialization_and_destruction_0():
/home/manga/Projects/Pokitto/PyInSky/builds/1/PokittoLib/POKITTO_CORE/PokittoConsole.cpp:42
Pokitto::Console pConsole;
     362:	4802      	ldr	r0, [pc, #8]	; (36c <_GLOBAL__sub_I_pConsole+0xc>)
     364:	f7ff ffd8 	bl	318 <_ZN7Pokitto7ConsoleC1Ev>
_GLOBAL__sub_I_pConsole():
/home/manga/Projects/Pokitto/PyInSky/builds/1/PokittoLib/POKITTO_CORE/PokittoConsole.cpp:308
}
     368:	bd10      	pop	{r4, pc}
     36a:	46c0      	nop			; (mov r8, r8)
     36c:	100001ea 	.word	0x100001ea

00000370 <_Z17start_applicationm>:
_Z17start_applicationm():
/home/manga/Projects/Pokitto/PyInSky/builds/1/PokittoLib/POKITTO_CORE/PokittoCore.cpp:1225
			//set the keyboard position on screen
			targetX = -(display.fontWidth+1) * activeX + LCDWIDTH / 2 - 3;
			targetY = -(display.fontHeight+1) * activeY + LCDHEIGHT / 2 - 4 - display.fontHeight;
			//smooth the keyboard displacement
			currentX = (targetX + currentX) / 2;
			currentY = (targetY + currentY) / 2;
     370:	b537      	push	{r0, r1, r2, r4, r5, lr}
__disable_irq():
/home/manga/Projects/Pokitto/PyInSky/builds/1/PokittoLib/POKITTO_CORE/PokittoCore.cpp:1225
     372:	b672      	cpsid	i
_Z17start_applicationm():
/home/manga/Projects/Pokitto/PyInSky/builds/1/PokittoLib/POKITTO_CORE/PokittoCore.cpp:1225
     374:	2400      	movs	r4, #0
     376:	2204      	movs	r2, #4
     378:	4b21      	ldr	r3, [pc, #132]	; (400 <_Z17start_applicationm+0x90>)
     37a:	2180      	movs	r1, #128	; 0x80
     37c:	605c      	str	r4, [r3, #4]
     37e:	611c      	str	r4, [r3, #16]
     380:	4b20      	ldr	r3, [pc, #128]	; (404 <_Z17start_applicationm+0x94>)
     382:	00c9      	lsls	r1, r1, #3
     384:	601a      	str	r2, [r3, #0]
     386:	228e      	movs	r2, #142	; 0x8e
     388:	4b1f      	ldr	r3, [pc, #124]	; (408 <_Z17start_applicationm+0x98>)
     38a:	0092      	lsls	r2, r2, #2
     38c:	589d      	ldr	r5, [r3, r2]
     38e:	4329      	orrs	r1, r5
     390:	5099      	str	r1, [r3, r2]
     392:	2180      	movs	r1, #128	; 0x80
/home/manga/Projects/Pokitto/PyInSky/builds/1/PokittoLib/POKITTO_CORE/PokittoCore.cpp:1216
			if (activeX == KEYBOARD_W) activeX = 0;
     394:	589d      	ldr	r5, [r3, r2]
     396:	0049      	lsls	r1, r1, #1
     398:	4329      	orrs	r1, r5
     39a:	5099      	str	r1, [r3, r2]
     39c:	2101      	movs	r1, #1
/home/manga/Projects/Pokitto/PyInSky/builds/1/PokittoLib/POKITTO_CORE/PokittoCore.cpp:81
LPC_SYSCON->MAINCLKUEN    = 0x01;             /* Update MCLK Clock Source   */
     39e:	6759      	str	r1, [r3, #116]	; 0x74
/home/manga/Projects/Pokitto/PyInSky/builds/1/PokittoLib/POKITTO_CORE/PokittoCore.cpp:82
LPC_SYSCON->MAINCLKUEN    = 0x00;             /* Toggle Update Register     */
     3a0:	675c      	str	r4, [r3, #116]	; 0x74
/home/manga/Projects/Pokitto/PyInSky/builds/1/PokittoLib/POKITTO_CORE/PokittoCore.cpp:83
while (LPC_SYSCON->MAINCLKUEN & 0x01);     /* Wait Until Updated         */
     3a2:	6f5a      	ldr	r2, [r3, #116]	; 0x74
     3a4:	400a      	ands	r2, r1
     3a6:	d1fc      	bne.n	3a2 <_Z17start_applicationm+0x32>
/home/manga/Projects/Pokitto/PyInSky/builds/1/PokittoLib/POKITTO_CORE/PokittoCore.cpp:85
LPC_SYSCON->MAINCLKSEL    = 0;             /* Select Clock Source        */
     3a8:	671a      	str	r2, [r3, #112]	; 0x70
/home/manga/Projects/Pokitto/PyInSky/builds/1/PokittoLib/POKITTO_CORE/PokittoCore.cpp:86
LPC_SYSCON->MAINCLKUEN    = 0x01;             /* Update MCLK Clock Source   */
     3aa:	6759      	str	r1, [r3, #116]	; 0x74
/home/manga/Projects/Pokitto/PyInSky/builds/1/PokittoLib/POKITTO_CORE/PokittoCore.cpp:88
while (LPC_SYSCON->MAINCLKUEN & 0x01);     /* Wait Until Updated         */
     3ac:	2101      	movs	r1, #1
/home/manga/Projects/Pokitto/PyInSky/builds/1/PokittoLib/POKITTO_CORE/PokittoCore.cpp:87
LPC_SYSCON->MAINCLKUEN    = 0x00;             /* Toggle Update Register     */
     3ae:	675a      	str	r2, [r3, #116]	; 0x74
/home/manga/Projects/Pokitto/PyInSky/builds/1/PokittoLib/POKITTO_CORE/PokittoCore.cpp:88
while (LPC_SYSCON->MAINCLKUEN & 0x01);     /* Wait Until Updated         */
     3b0:	6f5a      	ldr	r2, [r3, #116]	; 0x74
     3b2:	400a      	ands	r2, r1
     3b4:	d1fc      	bne.n	3b0 <_Z17start_applicationm+0x40>
/home/manga/Projects/Pokitto/PyInSky/builds/1/PokittoLib/POKITTO_CORE/PokittoCore.cpp:100
tmp = (LPC_SYSCON->PDRUNCFG & 0x000025FFL);
     3b6:	248e      	movs	r4, #142	; 0x8e
/home/manga/Projects/Pokitto/PyInSky/builds/1/PokittoLib/POKITTO_CORE/PokittoCore.cpp:90
LPC_SYSCON->SYSPLLCLKUEN = 0;
     3b8:	645a      	str	r2, [r3, #68]	; 0x44
/home/manga/Projects/Pokitto/PyInSky/builds/1/PokittoLib/POKITTO_CORE/PokittoCore.cpp:91
while (LPC_SYSCON->SYSPLLCLKUEN & 0x00);
     3ba:	6c59      	ldr	r1, [r3, #68]	; 0x44
/home/manga/Projects/Pokitto/PyInSky/builds/1/PokittoLib/POKITTO_CORE/PokittoCore.cpp:100
tmp = (LPC_SYSCON->PDRUNCFG & 0x000025FFL);
     3bc:	00a4      	lsls	r4, r4, #2
/home/manga/Projects/Pokitto/PyInSky/builds/1/PokittoLib/POKITTO_CORE/PokittoCore.cpp:92
LPC_SYSCON->SYSPLLCTRL = 0;
     3be:	609a      	str	r2, [r3, #8]
/home/manga/Projects/Pokitto/PyInSky/builds/1/PokittoLib/POKITTO_CORE/PokittoCore.cpp:95
LPC_SYSCON->MAINCLKSEL = 0;
     3c0:	671a      	str	r2, [r3, #112]	; 0x70
/home/manga/Projects/Pokitto/PyInSky/builds/1/PokittoLib/POKITTO_CORE/PokittoCore.cpp:96
LPC_SYSCON->PRESETCTRL = 0; //disable all peripherals
     3c2:	605a      	str	r2, [r3, #4]
/home/manga/Projects/Pokitto/PyInSky/builds/1/PokittoLib/POKITTO_CORE/PokittoCore.cpp:100
tmp = (LPC_SYSCON->PDRUNCFG & 0x000025FFL);
     3c4:	5919      	ldr	r1, [r3, r4]
     3c6:	4d11      	ldr	r5, [pc, #68]	; (40c <_Z17start_applicationm+0x9c>)
     3c8:	4029      	ands	r1, r5
     3ca:	9101      	str	r1, [sp, #4]
/home/manga/Projects/Pokitto/PyInSky/builds/1/PokittoLib/POKITTO_CORE/PokittoCore.cpp:101
tmp |= ((1<<7) & 0x000025FFL);
     3cc:	2180      	movs	r1, #128	; 0x80
     3ce:	9d01      	ldr	r5, [sp, #4]
     3d0:	4329      	orrs	r1, r5
     3d2:	9101      	str	r1, [sp, #4]
/home/manga/Projects/Pokitto/PyInSky/builds/1/PokittoLib/POKITTO_CORE/PokittoCore.cpp:102
LPC_SYSCON->PDRUNCFG = (tmp | 0x0000C800L); /* Power-down SYSPLL          */
     3d4:	21c8      	movs	r1, #200	; 0xc8
     3d6:	9d01      	ldr	r5, [sp, #4]
     3d8:	0209      	lsls	r1, r1, #8
     3da:	4329      	orrs	r1, r5
     3dc:	5119      	str	r1, [r3, r4]
/home/manga/Projects/Pokitto/PyInSky/builds/1/PokittoLib/POKITTO_CORE/PokittoCore.cpp:107
LPC_GPIO_PORT->PIN[0] = 0;
     3de:	23a0      	movs	r3, #160	; 0xa0
     3e0:	2184      	movs	r1, #132	; 0x84
     3e2:	061b      	lsls	r3, r3, #24
     3e4:	0189      	lsls	r1, r1, #6
     3e6:	505a      	str	r2, [r3, r1]
/home/manga/Projects/Pokitto/PyInSky/builds/1/PokittoLib/POKITTO_CORE/PokittoCore.cpp:108
LPC_GPIO_PORT->PIN[1] = 0;
     3e8:	4909      	ldr	r1, [pc, #36]	; (410 <_Z17start_applicationm+0xa0>)
     3ea:	505a      	str	r2, [r3, r1]
/home/manga/Projects/Pokitto/PyInSky/builds/1/PokittoLib/POKITTO_CORE/PokittoCore.cpp:109
LPC_GPIO_PORT->PIN[2] = 0;
     3ec:	4909      	ldr	r1, [pc, #36]	; (414 <_Z17start_applicationm+0xa4>)
     3ee:	505a      	str	r2, [r3, r1]
/home/manga/Projects/Pokitto/PyInSky/builds/1/PokittoLib/POKITTO_CORE/PokittoCore.cpp:111
SCB->VTOR = app_link_location;//APPL_ADDRESS; /* Change vector table address */
     3f0:	4b09      	ldr	r3, [pc, #36]	; (418 <_Z17start_applicationm+0xa8>)
     3f2:	6098      	str	r0, [r3, #8]
/home/manga/Projects/Pokitto/PyInSky/builds/1/PokittoLib/POKITTO_CORE/PokittoCore.cpp:113
asm(" mov r0, %[address]"::[address] "r" (app_link_location));
     3f4:	1c00      	adds	r0, r0, #0
/home/manga/Projects/Pokitto/PyInSky/builds/1/PokittoLib/POKITTO_CORE/PokittoCore.cpp:114
asm(" ldr r1, [r0,#0]"); // get the stack pointer value from the program's reset vector
     3f6:	6801      	ldr	r1, [r0, #0]
/home/manga/Projects/Pokitto/PyInSky/builds/1/PokittoLib/POKITTO_CORE/PokittoCore.cpp:115
asm(" mov sp, r1");      // copy the value to the stack pointer
     3f8:	468d      	mov	sp, r1
/home/manga/Projects/Pokitto/PyInSky/builds/1/PokittoLib/POKITTO_CORE/PokittoCore.cpp:116
asm(" ldr r0, [r0,#4]"); // get the program counter value from the program's reset vector
     3fa:	6840      	ldr	r0, [r0, #4]
/home/manga/Projects/Pokitto/PyInSky/builds/1/PokittoLib/POKITTO_CORE/PokittoCore.cpp:117
asm(" blx r0");          // jump to the' start address
     3fc:	4780      	blx	r0
/home/manga/Projects/Pokitto/PyInSky/builds/1/PokittoLib/POKITTO_CORE/PokittoCore.cpp:123
}
     3fe:	bd37      	pop	{r0, r1, r2, r4, r5, pc}
     400:	a0004000 	.word	0xa0004000
     404:	e000e010 	.word	0xe000e010
     408:	40048000 	.word	0x40048000
     40c:	000025ff 	.word	0x000025ff
     410:	00002104 	.word	0x00002104
     414:	00002108 	.word	0x00002108
     418:	e000ed00 	.word	0xe000ed00

0000041c <_ZN7Pokitto4CoreC1Ev>:
_ZN7Pokitto4CoreC2Ev():
/home/manga/Projects/Pokitto/PyInSky/builds/1/PokittoLib/POKITTO_CORE/PokittoCore.cpp:174
}
     41c:	4770      	bx	lr
_ZN7Pokitto4CoreC1Ev():
     41e:	Address 0x000000000000041e is out of bounds.


00000420 <_ZN7Pokitto4Core12updateLoaderEmm>:
_ZN7Pokitto4Core12updateLoaderEmm():
/home/manga/Projects/Pokitto/PyInSky/builds/1/PokittoLib/POKITTO_CORE/PokittoCore.cpp:177
int Core::updateLoader (uint32_t version, uint32_t jumpaddress) {
     420:	b5f0      	push	{r4, r5, r6, r7, lr}
/home/manga/Projects/Pokitto/PyInSky/builds/1/PokittoLib/POKITTO_CORE/PokittoCore.cpp:187
    if (fsize>0x40000-jumpaddress) fsize = 0x40000-jumpaddress; // shouldn't happen!!
     422:	2480      	movs	r4, #128	; 0x80
/home/manga/Projects/Pokitto/PyInSky/builds/1/PokittoLib/POKITTO_CORE/PokittoCore.cpp:177
int Core::updateLoader (uint32_t version, uint32_t jumpaddress) {
     424:	b0c1      	sub	sp, #260	; 0x104
     426:	000e      	movs	r6, r1
/home/manga/Projects/Pokitto/PyInSky/builds/1/PokittoLib/POKITTO_CORE/PokittoCore.cpp:185
    fileEnd(); //
     428:	f000 fea6 	bl	1178 <_Z7fileEndv>
/home/manga/Projects/Pokitto/PyInSky/builds/1/PokittoLib/POKITTO_CORE/PokittoCore.cpp:186
    fsize = fileGetPosition();
     42c:	f000 feb0 	bl	1190 <_Z15fileGetPositionv>
/home/manga/Projects/Pokitto/PyInSky/builds/1/PokittoLib/POKITTO_CORE/PokittoCore.cpp:187
    if (fsize>0x40000-jumpaddress) fsize = 0x40000-jumpaddress; // shouldn't happen!!
     430:	02e4      	lsls	r4, r4, #11
     432:	1ba4      	subs	r4, r4, r6
     434:	4284      	cmp	r4, r0
     436:	d900      	bls.n	43a <_ZN7Pokitto4Core12updateLoaderEmm+0x1a>
     438:	0004      	movs	r4, r0
/home/manga/Projects/Pokitto/PyInSky/builds/1/PokittoLib/POKITTO_CORE/PokittoCore.cpp:188
    fileRewind();
     43a:	f000 fe93 	bl	1164 <_Z10fileRewindv>
/home/manga/Projects/Pokitto/PyInSky/builds/1/PokittoLib/POKITTO_CORE/PokittoCore.cpp:198
        if (fileReadBytes(&data[0],0x100)<0x100) {
     43e:	2780      	movs	r7, #128	; 0x80
/home/manga/Projects/Pokitto/PyInSky/builds/1/PokittoLib/POKITTO_CORE/PokittoCore.cpp:189
    display.println("PLEASE WAIT");
     440:	4813      	ldr	r0, [pc, #76]	; (490 <_ZN7Pokitto4Core12updateLoaderEmm+0x70>)
     442:	f002 f985 	bl	2750 <_ZN7Pokitto7Display7printlnEPKc>
/home/manga/Projects/Pokitto/PyInSky/builds/1/PokittoLib/POKITTO_CORE/PokittoCore.cpp:179
    uint32_t counter=0;
     446:	2500      	movs	r5, #0
/home/manga/Projects/Pokitto/PyInSky/builds/1/PokittoLib/POKITTO_CORE/PokittoCore.cpp:198
        if (fileReadBytes(&data[0],0x100)<0x100) {
     448:	007f      	lsls	r7, r7, #1
/home/manga/Projects/Pokitto/PyInSky/builds/1/PokittoLib/POKITTO_CORE/PokittoCore.cpp:194
        if (counter >= fsize) {
     44a:	42a5      	cmp	r5, r4
     44c:	d21d      	bcs.n	48a <_ZN7Pokitto4Core12updateLoaderEmm+0x6a>
/home/manga/Projects/Pokitto/PyInSky/builds/1/PokittoLib/POKITTO_CORE/PokittoCore.cpp:198
        if (fileReadBytes(&data[0],0x100)<0x100) {
     44e:	2180      	movs	r1, #128	; 0x80
     450:	4668      	mov	r0, sp
     452:	0049      	lsls	r1, r1, #1
     454:	f000 fe6a 	bl	112c <_Z13fileReadBytesPht>
     458:	28ff      	cmp	r0, #255	; 0xff
     45a:	d808      	bhi.n	46e <_ZN7Pokitto4Core12updateLoaderEmm+0x4e>
/home/manga/Projects/Pokitto/PyInSky/builds/1/PokittoLib/POKITTO_CORE/PokittoCore.cpp:199
                if (fsize-counter>0x100) {
     45c:	1b63      	subs	r3, r4, r5
     45e:	42bb      	cmp	r3, r7
     460:	d905      	bls.n	46e <_ZN7Pokitto4Core12updateLoaderEmm+0x4e>
/home/manga/Projects/Pokitto/PyInSky/builds/1/PokittoLib/POKITTO_CORE/PokittoCore.cpp:200
                        display.println("ERROR READING LOA.DER FILE");
     462:	480c      	ldr	r0, [pc, #48]	; (494 <_ZN7Pokitto4Core12updateLoaderEmm+0x74>)
/home/manga/Projects/Pokitto/PyInSky/builds/1/PokittoLib/POKITTO_CORE/PokittoCore.cpp:205
                    display.println("FLASH WRITE ERROR");
     464:	f002 f974 	bl	2750 <_ZN7Pokitto7Display7printlnEPKc>
/home/manga/Projects/Pokitto/PyInSky/builds/1/PokittoLib/POKITTO_CORE/PokittoCore.cpp:206
                    return 1;
     468:	2001      	movs	r0, #1
/home/manga/Projects/Pokitto/PyInSky/builds/1/PokittoLib/POKITTO_CORE/PokittoCore.cpp:214
}
     46a:	b041      	add	sp, #260	; 0x104
     46c:	bdf0      	pop	{r4, r5, r6, r7, pc}
/home/manga/Projects/Pokitto/PyInSky/builds/1/PokittoLib/POKITTO_CORE/PokittoCore.cpp:204
        if (CopyPageToFlash(jumpaddress+counter,data)) {
     46e:	19a8      	adds	r0, r5, r6
     470:	4669      	mov	r1, sp
     472:	f003 ffb7 	bl	43e4 <_Z15CopyPageToFlashmPh>
     476:	2800      	cmp	r0, #0
     478:	d001      	beq.n	47e <_ZN7Pokitto4Core12updateLoaderEmm+0x5e>
/home/manga/Projects/Pokitto/PyInSky/builds/1/PokittoLib/POKITTO_CORE/PokittoCore.cpp:205
                    display.println("FLASH WRITE ERROR");
     47a:	4807      	ldr	r0, [pc, #28]	; (498 <_ZN7Pokitto4Core12updateLoaderEmm+0x78>)
     47c:	e7f2      	b.n	464 <_ZN7Pokitto4Core12updateLoaderEmm+0x44>
/home/manga/Projects/Pokitto/PyInSky/builds/1/PokittoLib/POKITTO_CORE/PokittoCore.cpp:208
            counter += 0x100;
     47e:	3501      	adds	r5, #1
/home/manga/Projects/Pokitto/PyInSky/builds/1/PokittoLib/POKITTO_CORE/PokittoCore.cpp:209
            display.print(".");
     480:	4806      	ldr	r0, [pc, #24]	; (49c <_ZN7Pokitto4Core12updateLoaderEmm+0x7c>)
/home/manga/Projects/Pokitto/PyInSky/builds/1/PokittoLib/POKITTO_CORE/PokittoCore.cpp:208
            counter += 0x100;
     482:	35ff      	adds	r5, #255	; 0xff
/home/manga/Projects/Pokitto/PyInSky/builds/1/PokittoLib/POKITTO_CORE/PokittoCore.cpp:209
            display.print(".");
     484:	f002 f958 	bl	2738 <_ZN7Pokitto7Display5printEPKc>
/home/manga/Projects/Pokitto/PyInSky/builds/1/PokittoLib/POKITTO_CORE/PokittoCore.cpp:194
        if (counter >= fsize) {
     488:	e7df      	b.n	44a <_ZN7Pokitto4Core12updateLoaderEmm+0x2a>
/home/manga/Projects/Pokitto/PyInSky/builds/1/PokittoLib/POKITTO_CORE/PokittoCore.cpp:213
    return 0; //success
     48a:	2000      	movs	r0, #0
     48c:	e7ed      	b.n	46a <_ZN7Pokitto4Core12updateLoaderEmm+0x4a>
     48e:	46c0      	nop			; (mov r8, r8)
     490:	0002582b 	.word	0x0002582b
     494:	00025837 	.word	0x00025837
     498:	00025852 	.word	0x00025852
     49c:	00025892 	.word	0x00025892

000004a0 <_ZN7Pokitto4Core12jumpToLoaderEv>:
_ZN7Pokitto4Core12jumpToLoaderEv():
/home/manga/Projects/Pokitto/PyInSky/builds/1/PokittoLib/POKITTO_CORE/PokittoCore.cpp:260
void Core::jumpToLoader() {
     4a0:	b5f7      	push	{r0, r1, r2, r4, r5, r6, r7, lr}
/home/manga/Projects/Pokitto/PyInSky/builds/1/PokittoLib/POKITTO_CORE/PokittoCore.cpp:264
    display.fontSize=1;
     4a2:	2601      	movs	r6, #1
/home/manga/Projects/Pokitto/PyInSky/builds/1/PokittoLib/POKITTO_CORE/PokittoCore.cpp:265
    display.directbgcolor=COLOR_BLACK;
     4a4:	2400      	movs	r4, #0
/home/manga/Projects/Pokitto/PyInSky/builds/1/PokittoLib/POKITTO_CORE/PokittoCore.cpp:264
    display.fontSize=1;
     4a6:	4b53      	ldr	r3, [pc, #332]	; (5f4 <_ZN7Pokitto4Core12jumpToLoaderEv+0x154>)
/home/manga/Projects/Pokitto/PyInSky/builds/1/PokittoLib/POKITTO_CORE/PokittoCore.cpp:266
    display.directcolor=COLOR_GREEN;
     4a8:	4d53      	ldr	r5, [pc, #332]	; (5f8 <_ZN7Pokitto4Core12jumpToLoaderEv+0x158>)
/home/manga/Projects/Pokitto/PyInSky/builds/1/PokittoLib/POKITTO_CORE/PokittoCore.cpp:264
    display.fontSize=1;
     4aa:	701e      	strb	r6, [r3, #0]
/home/manga/Projects/Pokitto/PyInSky/builds/1/PokittoLib/POKITTO_CORE/PokittoCore.cpp:265
    display.directbgcolor=COLOR_BLACK;
     4ac:	4b53      	ldr	r3, [pc, #332]	; (5fc <_ZN7Pokitto4Core12jumpToLoaderEv+0x15c>)
     4ae:	801c      	strh	r4, [r3, #0]
/home/manga/Projects/Pokitto/PyInSky/builds/1/PokittoLib/POKITTO_CORE/PokittoCore.cpp:266
    display.directcolor=COLOR_GREEN;
     4b0:	23fc      	movs	r3, #252	; 0xfc
     4b2:	00db      	lsls	r3, r3, #3
     4b4:	802b      	strh	r3, [r5, #0]
/home/manga/Projects/Pokitto/PyInSky/builds/1/PokittoLib/POKITTO_CORE/PokittoCore.cpp:267
    display.clearLCD();
     4b6:	f000 fed1 	bl	125c <_ZN7Pokitto7Display8clearLCDEv>
/home/manga/Projects/Pokitto/PyInSky/builds/1/PokittoLib/POKITTO_CORE/PokittoCore.cpp:268
    display.setCursor(0,0);
     4ba:	0021      	movs	r1, r4
     4bc:	0020      	movs	r0, r4
     4be:	f000 fefd 	bl	12bc <_ZN7Pokitto7Display9setCursorEss>
/home/manga/Projects/Pokitto/PyInSky/builds/1/PokittoLib/POKITTO_CORE/PokittoCore.cpp:269
    display.enableDirectPrinting(true);
     4c2:	0030      	movs	r0, r6
     4c4:	f002 f88c 	bl	25e0 <_ZN7Pokitto7Display20enableDirectPrintingEh>
/home/manga/Projects/Pokitto/PyInSky/builds/1/PokittoLib/POKITTO_CORE/PokittoCore.cpp:274
    uint32_t bootversion=0, sdversion=0, sdjump=0;
     4c8:	9400      	str	r4, [sp, #0]
     4ca:	9401      	str	r4, [sp, #4]
/home/manga/Projects/Pokitto/PyInSky/builds/1/PokittoLib/POKITTO_CORE/PokittoCore.cpp:278
    pokInitSD();
     4cc:	f000 fde6 	bl	109c <_Z9pokInitSDv>
/home/manga/Projects/Pokitto/PyInSky/builds/1/PokittoLib/POKITTO_CORE/PokittoCore.cpp:279
    if (fileOpen("LOA.DER", FILE_MODE_BINARY)==0) {
     4d0:	2104      	movs	r1, #4
     4d2:	484b      	ldr	r0, [pc, #300]	; (600 <_ZN7Pokitto4Core12jumpToLoaderEv+0x160>)
     4d4:	f000 fe04 	bl	10e0 <_Z8fileOpenPcc>
     4d8:	42a0      	cmp	r0, r4
     4da:	d10f      	bne.n	4fc <_ZN7Pokitto4Core12jumpToLoaderEv+0x5c>
/home/manga/Projects/Pokitto/PyInSky/builds/1/PokittoLib/POKITTO_CORE/PokittoCore.cpp:281
        fileEnd(); // go to end
     4dc:	f000 fe4c 	bl	1178 <_Z7fileEndv>
/home/manga/Projects/Pokitto/PyInSky/builds/1/PokittoLib/POKITTO_CORE/PokittoCore.cpp:282
        fileSeekRelative(-8); //rewind 8 bytes
     4e0:	2008      	movs	r0, #8
     4e2:	4240      	negs	r0, r0
     4e4:	f000 fe2a 	bl	113c <_Z16fileSeekRelativel>
/home/manga/Projects/Pokitto/PyInSky/builds/1/PokittoLib/POKITTO_CORE/PokittoCore.cpp:284
        fileReadBytes((uint8_t*)tptr,4); //read version number of loader on SD card
     4e8:	2104      	movs	r1, #4
     4ea:	4668      	mov	r0, sp
     4ec:	f000 fe1e 	bl	112c <_Z13fileReadBytesPht>
/home/manga/Projects/Pokitto/PyInSky/builds/1/PokittoLib/POKITTO_CORE/PokittoCore.cpp:286
        fileReadBytes((uint8_t*)tptr,4); //read jump address of loader on sd card
     4f0:	2104      	movs	r1, #4
     4f2:	a801      	add	r0, sp, #4
     4f4:	f000 fe1a 	bl	112c <_Z13fileReadBytesPht>
/home/manga/Projects/Pokitto/PyInSky/builds/1/PokittoLib/POKITTO_CORE/PokittoCore.cpp:287
        fileRewind();
     4f8:	f000 fe34 	bl	1164 <_Z10fileRewindv>
/home/manga/Projects/Pokitto/PyInSky/builds/1/PokittoLib/POKITTO_CORE/PokittoCore.cpp:295
    if (*bootinfo != 0xB007AB1E) bootinfo = (uint32_t*)0x3FF04; //allow couple of alternative locations
     4fc:	27f0      	movs	r7, #240	; 0xf0
     4fe:	4e41      	ldr	r6, [pc, #260]	; (604 <_ZN7Pokitto4Core12jumpToLoaderEv+0x164>)
     500:	4b41      	ldr	r3, [pc, #260]	; (608 <_ZN7Pokitto4Core12jumpToLoaderEv+0x168>)
     502:	681c      	ldr	r4, [r3, #0]
     504:	4b41      	ldr	r3, [pc, #260]	; (60c <_ZN7Pokitto4Core12jumpToLoaderEv+0x16c>)
     506:	18e4      	adds	r4, r4, r3
     508:	4263      	negs	r3, r4
     50a:	415c      	adcs	r4, r3
     50c:	4b40      	ldr	r3, [pc, #256]	; (610 <_ZN7Pokitto4Core12jumpToLoaderEv+0x170>)
     50e:	4264      	negs	r4, r4
     510:	403c      	ands	r4, r7
     512:	18e4      	adds	r4, r4, r3
/home/manga/Projects/Pokitto/PyInSky/builds/1/PokittoLib/POKITTO_CORE/PokittoCore.cpp:296
    if (*bootinfo != 0xB007AB1E) bootinfo = (uint32_t*)0x3FE04; //allow couple of alternative locations
     514:	6823      	ldr	r3, [r4, #0]
     516:	42b3      	cmp	r3, r6
     518:	d000      	beq.n	51c <_ZN7Pokitto4Core12jumpToLoaderEv+0x7c>
     51a:	4c3e      	ldr	r4, [pc, #248]	; (614 <_ZN7Pokitto4Core12jumpToLoaderEv+0x174>)
/home/manga/Projects/Pokitto/PyInSky/builds/1/PokittoLib/POKITTO_CORE/PokittoCore.cpp:297
    if (*bootinfo != 0xB007AB1E) bootinfo = (uint32_t*)0x3F004; //for futureproofing
     51c:	6823      	ldr	r3, [r4, #0]
     51e:	42b3      	cmp	r3, r6
     520:	d000      	beq.n	524 <_ZN7Pokitto4Core12jumpToLoaderEv+0x84>
     522:	4c3d      	ldr	r4, [pc, #244]	; (618 <_ZN7Pokitto4Core12jumpToLoaderEv+0x178>)
/home/manga/Projects/Pokitto/PyInSky/builds/1/PokittoLib/POKITTO_CORE/PokittoCore.cpp:298
    if (*bootinfo != 0xB007AB1E) {
     524:	6823      	ldr	r3, [r4, #0]
     526:	42b3      	cmp	r3, r6
     528:	d019      	beq.n	55e <_ZN7Pokitto4Core12jumpToLoaderEv+0xbe>
/home/manga/Projects/Pokitto/PyInSky/builds/1/PokittoLib/POKITTO_CORE/PokittoCore.cpp:300
        display.directcolor=COLOR_YELLOW;
     52a:	2320      	movs	r3, #32
/home/manga/Projects/Pokitto/PyInSky/builds/1/PokittoLib/POKITTO_CORE/PokittoCore.cpp:301
        display.println("NO LOADER INSTALLED");
     52c:	483b      	ldr	r0, [pc, #236]	; (61c <_ZN7Pokitto4Core12jumpToLoaderEv+0x17c>)
/home/manga/Projects/Pokitto/PyInSky/builds/1/PokittoLib/POKITTO_CORE/PokittoCore.cpp:300
        display.directcolor=COLOR_YELLOW;
     52e:	425b      	negs	r3, r3
     530:	802b      	strh	r3, [r5, #0]
/home/manga/Projects/Pokitto/PyInSky/builds/1/PokittoLib/POKITTO_CORE/PokittoCore.cpp:301
        display.println("NO LOADER INSTALLED");
     532:	f002 f90d 	bl	2750 <_ZN7Pokitto7Display7printlnEPKc>
/home/manga/Projects/Pokitto/PyInSky/builds/1/PokittoLib/POKITTO_CORE/PokittoCore.cpp:302
        if (sdversion==0 || sdjump < 0x38000) {
     536:	9b00      	ldr	r3, [sp, #0]
     538:	2b00      	cmp	r3, #0
     53a:	d003      	beq.n	544 <_ZN7Pokitto4Core12jumpToLoaderEv+0xa4>
/home/manga/Projects/Pokitto/PyInSky/builds/1/PokittoLib/POKITTO_CORE/PokittoCore.cpp:302 (discriminator 1)
     53c:	4b38      	ldr	r3, [pc, #224]	; (620 <_ZN7Pokitto4Core12jumpToLoaderEv+0x180>)
     53e:	9a01      	ldr	r2, [sp, #4]
     540:	429a      	cmp	r2, r3
     542:	d830      	bhi.n	5a6 <_ZN7Pokitto4Core12jumpToLoaderEv+0x106>
/home/manga/Projects/Pokitto/PyInSky/builds/1/PokittoLib/POKITTO_CORE/PokittoCore.cpp:304
                display.println("NO VALID LOA.DER ON SD");
     544:	4837      	ldr	r0, [pc, #220]	; (624 <_ZN7Pokitto4Core12jumpToLoaderEv+0x184>)
     546:	f002 f903 	bl	2750 <_ZN7Pokitto7Display7printlnEPKc>
/home/manga/Projects/Pokitto/PyInSky/builds/1/PokittoLib/POKITTO_CORE/PokittoCore.cpp:305
                display.println("");
     54a:	4837      	ldr	r0, [pc, #220]	; (628 <_ZN7Pokitto4Core12jumpToLoaderEv+0x188>)
     54c:	f002 f900 	bl	2750 <_ZN7Pokitto7Display7printlnEPKc>
/home/manga/Projects/Pokitto/PyInSky/builds/1/PokittoLib/POKITTO_CORE/PokittoCore.cpp:306
                display.directcolor=COLOR_GREEN;
     550:	23fc      	movs	r3, #252	; 0xfc
/home/manga/Projects/Pokitto/PyInSky/builds/1/PokittoLib/POKITTO_CORE/PokittoCore.cpp:307
                display.println("PUT LOA.DER ON SD & REBOOT");
     552:	4836      	ldr	r0, [pc, #216]	; (62c <_ZN7Pokitto4Core12jumpToLoaderEv+0x18c>)
/home/manga/Projects/Pokitto/PyInSky/builds/1/PokittoLib/POKITTO_CORE/PokittoCore.cpp:306
                display.directcolor=COLOR_GREEN;
     554:	00db      	lsls	r3, r3, #3
     556:	802b      	strh	r3, [r5, #0]
/home/manga/Projects/Pokitto/PyInSky/builds/1/PokittoLib/POKITTO_CORE/PokittoCore.cpp:334
                            display.println("PUT LOA.DER ON SD AND RETRY");
     558:	f002 f8fa 	bl	2750 <_ZN7Pokitto7Display7printlnEPKc>
     55c:	e012      	b.n	584 <_ZN7Pokitto4Core12jumpToLoaderEv+0xe4>
/home/manga/Projects/Pokitto/PyInSky/builds/1/PokittoLib/POKITTO_CORE/PokittoCore.cpp:312
        display.directcolor=COLOR_CYAN;
     55e:	4b34      	ldr	r3, [pc, #208]	; (630 <_ZN7Pokitto4Core12jumpToLoaderEv+0x190>)
/home/manga/Projects/Pokitto/PyInSky/builds/1/PokittoLib/POKITTO_CORE/PokittoCore.cpp:313
        display.print("LOADER V.");
     560:	4834      	ldr	r0, [pc, #208]	; (634 <_ZN7Pokitto4Core12jumpToLoaderEv+0x194>)
/home/manga/Projects/Pokitto/PyInSky/builds/1/PokittoLib/POKITTO_CORE/PokittoCore.cpp:312
        display.directcolor=COLOR_CYAN;
     562:	802b      	strh	r3, [r5, #0]
/home/manga/Projects/Pokitto/PyInSky/builds/1/PokittoLib/POKITTO_CORE/PokittoCore.cpp:313
        display.print("LOADER V.");
     564:	f002 f8e8 	bl	2738 <_ZN7Pokitto7Display5printEPKc>
/home/manga/Projects/Pokitto/PyInSky/builds/1/PokittoLib/POKITTO_CORE/PokittoCore.cpp:314
        display.directcolor=COLOR_WHITE;
     568:	2301      	movs	r3, #1
/home/manga/Projects/Pokitto/PyInSky/builds/1/PokittoLib/POKITTO_CORE/PokittoCore.cpp:315
        display.println(*(bootinfo+1));
     56a:	210a      	movs	r1, #10
/home/manga/Projects/Pokitto/PyInSky/builds/1/PokittoLib/POKITTO_CORE/PokittoCore.cpp:314
        display.directcolor=COLOR_WHITE;
     56c:	425b      	negs	r3, r3
/home/manga/Projects/Pokitto/PyInSky/builds/1/PokittoLib/POKITTO_CORE/PokittoCore.cpp:315
        display.println(*(bootinfo+1));
     56e:	6860      	ldr	r0, [r4, #4]
/home/manga/Projects/Pokitto/PyInSky/builds/1/PokittoLib/POKITTO_CORE/PokittoCore.cpp:314
        display.directcolor=COLOR_WHITE;
     570:	802b      	strh	r3, [r5, #0]
/home/manga/Projects/Pokitto/PyInSky/builds/1/PokittoLib/POKITTO_CORE/PokittoCore.cpp:315
        display.println(*(bootinfo+1));
     572:	f002 f978 	bl	2866 <_ZN7Pokitto7Display7printlnEmi>
/home/manga/Projects/Pokitto/PyInSky/builds/1/PokittoLib/POKITTO_CORE/PokittoCore.cpp:317
        if (sdversion>(*(bootinfo+1))) flashloader=true;
     576:	6863      	ldr	r3, [r4, #4]
     578:	9a00      	ldr	r2, [sp, #0]
     57a:	4293      	cmp	r3, r2
     57c:	d313      	bcc.n	5a6 <_ZN7Pokitto4Core12jumpToLoaderEv+0x106>
/home/manga/Projects/Pokitto/PyInSky/builds/1/PokittoLib/POKITTO_CORE/PokittoCore.cpp:318
        else start_application(*(bootinfo+2)); //never returns
     57e:	68a0      	ldr	r0, [r4, #8]
     580:	f7ff fef6 	bl	370 <_Z17start_applicationm>
/home/manga/Projects/Pokitto/PyInSky/builds/1/PokittoLib/POKITTO_CORE/PokittoCore.cpp:346
    while (!buttons.aBtn()) {
     584:	f7ff feb6 	bl	2f4 <_ZN7Pokitto7Buttons4aBtnEv>
     588:	2800      	cmp	r0, #0
     58a:	d132      	bne.n	5f2 <_ZN7Pokitto4Core12jumpToLoaderEv+0x152>
/home/manga/Projects/Pokitto/PyInSky/builds/1/PokittoLib/POKITTO_CORE/PokittoCore.cpp:347
        buttons.pollButtons();
     58c:	f7ff fe6c 	bl	268 <_ZN7Pokitto7Buttons11pollButtonsEv>
/home/manga/Projects/Pokitto/PyInSky/builds/1/PokittoLib/POKITTO_CORE/PokittoCore.cpp:348
        if (buttons.aBtn()) {
     590:	f7ff feb0 	bl	2f4 <_ZN7Pokitto7Buttons4aBtnEv>
     594:	2800      	cmp	r0, #0
     596:	d0f5      	beq.n	584 <_ZN7Pokitto4Core12jumpToLoaderEv+0xe4>
/home/manga/Projects/Pokitto/PyInSky/builds/1/PokittoLib/POKITTO_CORE/PokittoCore.cpp:349
            while (buttons.aBtn()) {
     598:	f7ff feac 	bl	2f4 <_ZN7Pokitto7Buttons4aBtnEv>
     59c:	2800      	cmp	r0, #0
     59e:	d028      	beq.n	5f2 <_ZN7Pokitto4Core12jumpToLoaderEv+0x152>
/home/manga/Projects/Pokitto/PyInSky/builds/1/PokittoLib/POKITTO_CORE/PokittoCore.cpp:350
                buttons.pollButtons();
     5a0:	f7ff fe62 	bl	268 <_ZN7Pokitto7Buttons11pollButtonsEv>
/home/manga/Projects/Pokitto/PyInSky/builds/1/PokittoLib/POKITTO_CORE/PokittoCore.cpp:349
            while (buttons.aBtn()) {
     5a4:	e7f8      	b.n	598 <_ZN7Pokitto4Core12jumpToLoaderEv+0xf8>
/home/manga/Projects/Pokitto/PyInSky/builds/1/PokittoLib/POKITTO_CORE/PokittoCore.cpp:325
            display.directcolor=COLOR_MAGENTA;
     5a6:	4b24      	ldr	r3, [pc, #144]	; (638 <_ZN7Pokitto4Core12jumpToLoaderEv+0x198>)
/home/manga/Projects/Pokitto/PyInSky/builds/1/PokittoLib/POKITTO_CORE/PokittoCore.cpp:326
            display.print("NEW LOADER ON SD V.");
     5a8:	4824      	ldr	r0, [pc, #144]	; (63c <_ZN7Pokitto4Core12jumpToLoaderEv+0x19c>)
/home/manga/Projects/Pokitto/PyInSky/builds/1/PokittoLib/POKITTO_CORE/PokittoCore.cpp:325
            display.directcolor=COLOR_MAGENTA;
     5aa:	802b      	strh	r3, [r5, #0]
/home/manga/Projects/Pokitto/PyInSky/builds/1/PokittoLib/POKITTO_CORE/PokittoCore.cpp:326
            display.print("NEW LOADER ON SD V.");
     5ac:	f002 f8c4 	bl	2738 <_ZN7Pokitto7Display5printEPKc>
/home/manga/Projects/Pokitto/PyInSky/builds/1/PokittoLib/POKITTO_CORE/PokittoCore.cpp:327
            display.directcolor=COLOR_WHITE;
     5b0:	2301      	movs	r3, #1
/home/manga/Projects/Pokitto/PyInSky/builds/1/PokittoLib/POKITTO_CORE/PokittoCore.cpp:328
            display.println(sdversion);
     5b2:	9800      	ldr	r0, [sp, #0]
/home/manga/Projects/Pokitto/PyInSky/builds/1/PokittoLib/POKITTO_CORE/PokittoCore.cpp:327
            display.directcolor=COLOR_WHITE;
     5b4:	425b      	negs	r3, r3
/home/manga/Projects/Pokitto/PyInSky/builds/1/PokittoLib/POKITTO_CORE/PokittoCore.cpp:328
            display.println(sdversion);
     5b6:	210a      	movs	r1, #10
/home/manga/Projects/Pokitto/PyInSky/builds/1/PokittoLib/POKITTO_CORE/PokittoCore.cpp:327
            display.directcolor=COLOR_WHITE;
     5b8:	802b      	strh	r3, [r5, #0]
/home/manga/Projects/Pokitto/PyInSky/builds/1/PokittoLib/POKITTO_CORE/PokittoCore.cpp:328
            display.println(sdversion);
     5ba:	f002 f954 	bl	2866 <_ZN7Pokitto7Display7printlnEmi>
/home/manga/Projects/Pokitto/PyInSky/builds/1/PokittoLib/POKITTO_CORE/PokittoCore.cpp:329
            display.directcolor=COLOR_GREEN;
     5be:	23fc      	movs	r3, #252	; 0xfc
/home/manga/Projects/Pokitto/PyInSky/builds/1/PokittoLib/POKITTO_CORE/PokittoCore.cpp:330
            display.println("UPDATE LOADER?\n(UP=YES, DOWN=CANCEL)");
     5c0:	481f      	ldr	r0, [pc, #124]	; (640 <_ZN7Pokitto4Core12jumpToLoaderEv+0x1a0>)
/home/manga/Projects/Pokitto/PyInSky/builds/1/PokittoLib/POKITTO_CORE/PokittoCore.cpp:329
            display.directcolor=COLOR_GREEN;
     5c2:	00db      	lsls	r3, r3, #3
     5c4:	802b      	strh	r3, [r5, #0]
/home/manga/Projects/Pokitto/PyInSky/builds/1/PokittoLib/POKITTO_CORE/PokittoCore.cpp:330
            display.println("UPDATE LOADER?\n(UP=YES, DOWN=CANCEL)");
     5c6:	f002 f8c3 	bl	2750 <_ZN7Pokitto7Display7printlnEPKc>
/home/manga/Projects/Pokitto/PyInSky/builds/1/PokittoLib/POKITTO_CORE/PokittoCore.cpp:332
                    if (buttons.upBtn()) {
     5ca:	f7ff fe99 	bl	300 <_ZN7Pokitto7Buttons5upBtnEv>
     5ce:	2800      	cmp	r0, #0
     5d0:	d00b      	beq.n	5ea <_ZN7Pokitto4Core12jumpToLoaderEv+0x14a>
/home/manga/Projects/Pokitto/PyInSky/builds/1/PokittoLib/POKITTO_CORE/PokittoCore.cpp:333
                        if (updateLoader(sdversion,sdjump)) {
     5d2:	9901      	ldr	r1, [sp, #4]
     5d4:	9800      	ldr	r0, [sp, #0]
     5d6:	f7ff ff23 	bl	420 <_ZN7Pokitto4Core12updateLoaderEmm>
     5da:	2800      	cmp	r0, #0
     5dc:	d001      	beq.n	5e2 <_ZN7Pokitto4Core12jumpToLoaderEv+0x142>
/home/manga/Projects/Pokitto/PyInSky/builds/1/PokittoLib/POKITTO_CORE/PokittoCore.cpp:334
                            display.println("PUT LOA.DER ON SD AND RETRY");
     5de:	4819      	ldr	r0, [pc, #100]	; (644 <_ZN7Pokitto4Core12jumpToLoaderEv+0x1a4>)
     5e0:	e7ba      	b.n	558 <_ZN7Pokitto4Core12jumpToLoaderEv+0xb8>
/home/manga/Projects/Pokitto/PyInSky/builds/1/PokittoLib/POKITTO_CORE/PokittoCore.cpp:336
                        display.println("SUCCESS!!");
     5e2:	4819      	ldr	r0, [pc, #100]	; (648 <_ZN7Pokitto4Core12jumpToLoaderEv+0x1a8>)
     5e4:	f002 f8b4 	bl	2750 <_ZN7Pokitto7Display7printlnEPKc>
     5e8:	e78a      	b.n	500 <_ZN7Pokitto4Core12jumpToLoaderEv+0x60>
/home/manga/Projects/Pokitto/PyInSky/builds/1/PokittoLib/POKITTO_CORE/PokittoCore.cpp:341
                    if (buttons.downBtn()) return;
     5ea:	f7ff fe8f 	bl	30c <_ZN7Pokitto7Buttons7downBtnEv>
     5ee:	2800      	cmp	r0, #0
     5f0:	d0eb      	beq.n	5ca <_ZN7Pokitto4Core12jumpToLoaderEv+0x12a>
/home/manga/Projects/Pokitto/PyInSky/builds/1/PokittoLib/POKITTO_CORE/PokittoCore.cpp:355
}
     5f2:	bdf7      	pop	{r0, r1, r2, r4, r5, r6, r7, pc}
     5f4:	10000116 	.word	0x10000116
     5f8:	10000106 	.word	0x10000106
     5fc:	100015a2 	.word	0x100015a2
     600:	00025774 	.word	0x00025774
     604:	b007ab1e 	.word	0xb007ab1e
     608:	0003fff4 	.word	0x0003fff4
     60c:	4ff854e2 	.word	0x4ff854e2
     610:	0003ff04 	.word	0x0003ff04
     614:	0003fe04 	.word	0x0003fe04
     618:	0003f004 	.word	0x0003f004
     61c:	0002577c 	.word	0x0002577c
     620:	00037fff 	.word	0x00037fff
     624:	00025790 	.word	0x00025790
     628:	00025fa8 	.word	0x00025fa8
     62c:	000257a7 	.word	0x000257a7
     630:	000007ff 	.word	0x000007ff
     634:	000257c2 	.word	0x000257c2
     638:	fffff81f 	.word	0xfffff81f
     63c:	000257cc 	.word	0x000257cc
     640:	000257e0 	.word	0x000257e0
     644:	00025805 	.word	0x00025805
     648:	00025821 	.word	0x00025821

0000064c <_ZN7Pokitto4Core9askLoaderEv>:
_ZN7Pokitto4Core9askLoaderEv():
/home/manga/Projects/Pokitto/PyInSky/builds/1/PokittoLib/POKITTO_CORE/PokittoCore.cpp:357
void Core::askLoader() {
     64c:	b5f8      	push	{r3, r4, r5, r6, r7, lr}
/home/manga/Projects/Pokitto/PyInSky/builds/1/PokittoLib/POKITTO_CORE/PokittoCore.cpp:359
    display.directbgcolor = COLOR_BLACK;
     64e:	2400      	movs	r4, #0
/home/manga/Projects/Pokitto/PyInSky/builds/1/PokittoLib/POKITTO_CORE/PokittoCore.cpp:358
    display.enableDirectPrinting(true);
     650:	2001      	movs	r0, #1
     652:	f001 ffc5 	bl	25e0 <_ZN7Pokitto7Display20enableDirectPrintingEh>
/home/manga/Projects/Pokitto/PyInSky/builds/1/PokittoLib/POKITTO_CORE/PokittoCore.cpp:359
    display.directbgcolor = COLOR_BLACK;
     656:	4b48      	ldr	r3, [pc, #288]	; (778 <_ZN7Pokitto4Core9askLoaderEv+0x12c>)
/home/manga/Projects/Pokitto/PyInSky/builds/1/PokittoLib/POKITTO_CORE/PokittoCore.cpp:366
    display.directcolor=COLOR_GREEN;
     658:	27fc      	movs	r7, #252	; 0xfc
/home/manga/Projects/Pokitto/PyInSky/builds/1/PokittoLib/POKITTO_CORE/PokittoCore.cpp:359
    display.directbgcolor = COLOR_BLACK;
     65a:	801c      	strh	r4, [r3, #0]
/home/manga/Projects/Pokitto/PyInSky/builds/1/PokittoLib/POKITTO_CORE/PokittoCore.cpp:360
    display.clearLCD();
     65c:	f000 fdfe 	bl	125c <_ZN7Pokitto7Display8clearLCDEv>
/home/manga/Projects/Pokitto/PyInSky/builds/1/PokittoLib/POKITTO_CORE/PokittoCore.cpp:361
    display.directcolor = COLOR_RED;
     660:	4e46      	ldr	r6, [pc, #280]	; (77c <_ZN7Pokitto4Core9askLoaderEv+0x130>)
     662:	4b47      	ldr	r3, [pc, #284]	; (780 <_ZN7Pokitto4Core9askLoaderEv+0x134>)
/home/manga/Projects/Pokitto/PyInSky/builds/1/PokittoLib/POKITTO_CORE/PokittoCore.cpp:362
    display.setFont(fntC64UIGfx);
     664:	4847      	ldr	r0, [pc, #284]	; (784 <_ZN7Pokitto4Core9askLoaderEv+0x138>)
/home/manga/Projects/Pokitto/PyInSky/builds/1/PokittoLib/POKITTO_CORE/PokittoCore.cpp:361
    display.directcolor = COLOR_RED;
     666:	8033      	strh	r3, [r6, #0]
/home/manga/Projects/Pokitto/PyInSky/builds/1/PokittoLib/POKITTO_CORE/PokittoCore.cpp:362
    display.setFont(fntC64UIGfx);
     668:	f001 fc62 	bl	1f30 <_ZN7Pokitto7Display7setFontEPKh>
/home/manga/Projects/Pokitto/PyInSky/builds/1/PokittoLib/POKITTO_CORE/PokittoCore.cpp:363
    display.fontSize=1;
     66c:	2301      	movs	r3, #1
     66e:	4d46      	ldr	r5, [pc, #280]	; (788 <_ZN7Pokitto4Core9askLoaderEv+0x13c>)
/home/manga/Projects/Pokitto/PyInSky/builds/1/PokittoLib/POKITTO_CORE/PokittoCore.cpp:367
    display.set_cursor(12*8,6*8);
     670:	2130      	movs	r1, #48	; 0x30
/home/manga/Projects/Pokitto/PyInSky/builds/1/PokittoLib/POKITTO_CORE/PokittoCore.cpp:363
    display.fontSize=1;
     672:	702b      	strb	r3, [r5, #0]
/home/manga/Projects/Pokitto/PyInSky/builds/1/PokittoLib/POKITTO_CORE/PokittoCore.cpp:364
    display.adjustCharStep = 0;
     674:	4b45      	ldr	r3, [pc, #276]	; (78c <_ZN7Pokitto4Core9askLoaderEv+0x140>)
/home/manga/Projects/Pokitto/PyInSky/builds/1/PokittoLib/POKITTO_CORE/PokittoCore.cpp:366
    display.directcolor=COLOR_GREEN;
     676:	00ff      	lsls	r7, r7, #3
/home/manga/Projects/Pokitto/PyInSky/builds/1/PokittoLib/POKITTO_CORE/PokittoCore.cpp:364
    display.adjustCharStep = 0;
     678:	701c      	strb	r4, [r3, #0]
/home/manga/Projects/Pokitto/PyInSky/builds/1/PokittoLib/POKITTO_CORE/PokittoCore.cpp:365
    display.adjustLineStep = 0;
     67a:	4b45      	ldr	r3, [pc, #276]	; (790 <_ZN7Pokitto4Core9askLoaderEv+0x144>)
/home/manga/Projects/Pokitto/PyInSky/builds/1/PokittoLib/POKITTO_CORE/PokittoCore.cpp:367
    display.set_cursor(12*8,6*8);
     67c:	2060      	movs	r0, #96	; 0x60
/home/manga/Projects/Pokitto/PyInSky/builds/1/PokittoLib/POKITTO_CORE/PokittoCore.cpp:365
    display.adjustLineStep = 0;
     67e:	701c      	strb	r4, [r3, #0]
/home/manga/Projects/Pokitto/PyInSky/builds/1/PokittoLib/POKITTO_CORE/PokittoCore.cpp:366
    display.directcolor=COLOR_GREEN;
     680:	8037      	strh	r7, [r6, #0]
/home/manga/Projects/Pokitto/PyInSky/builds/1/PokittoLib/POKITTO_CORE/PokittoCore.cpp:367
    display.set_cursor(12*8,6*8);
     682:	f002 f86b 	bl	275c <_ZN7Pokitto7Display10set_cursorEhh>
/home/manga/Projects/Pokitto/PyInSky/builds/1/PokittoLib/POKITTO_CORE/PokittoCore.cpp:368
    display.print("ijkl");
     686:	4843      	ldr	r0, [pc, #268]	; (794 <_ZN7Pokitto4Core9askLoaderEv+0x148>)
     688:	f002 f856 	bl	2738 <_ZN7Pokitto7Display5printEPKc>
/home/manga/Projects/Pokitto/PyInSky/builds/1/PokittoLib/POKITTO_CORE/PokittoCore.cpp:369
    display.set_cursor(12*8,7*8);
     68c:	2138      	movs	r1, #56	; 0x38
     68e:	2060      	movs	r0, #96	; 0x60
     690:	f002 f864 	bl	275c <_ZN7Pokitto7Display10set_cursorEhh>
/home/manga/Projects/Pokitto/PyInSky/builds/1/PokittoLib/POKITTO_CORE/PokittoCore.cpp:370
    display.print("mnop");
     694:	4840      	ldr	r0, [pc, #256]	; (798 <_ZN7Pokitto4Core9askLoaderEv+0x14c>)
     696:	f002 f84f 	bl	2738 <_ZN7Pokitto7Display5printEPKc>
/home/manga/Projects/Pokitto/PyInSky/builds/1/PokittoLib/POKITTO_CORE/PokittoCore.cpp:371
    display.set_cursor(12*8,8*8);
     69a:	2140      	movs	r1, #64	; 0x40
     69c:	2060      	movs	r0, #96	; 0x60
     69e:	f002 f85d 	bl	275c <_ZN7Pokitto7Display10set_cursorEhh>
/home/manga/Projects/Pokitto/PyInSky/builds/1/PokittoLib/POKITTO_CORE/PokittoCore.cpp:372
    display.print("qrst");
     6a2:	483e      	ldr	r0, [pc, #248]	; (79c <_ZN7Pokitto4Core9askLoaderEv+0x150>)
     6a4:	f002 f848 	bl	2738 <_ZN7Pokitto7Display5printEPKc>
/home/manga/Projects/Pokitto/PyInSky/builds/1/PokittoLib/POKITTO_CORE/PokittoCore.cpp:373
    display.set_cursor(12*8,9*8);
     6a8:	2148      	movs	r1, #72	; 0x48
     6aa:	2060      	movs	r0, #96	; 0x60
     6ac:	f002 f856 	bl	275c <_ZN7Pokitto7Display10set_cursorEhh>
/home/manga/Projects/Pokitto/PyInSky/builds/1/PokittoLib/POKITTO_CORE/PokittoCore.cpp:374
    display.print("uvwx");
     6b0:	483b      	ldr	r0, [pc, #236]	; (7a0 <_ZN7Pokitto4Core9askLoaderEv+0x154>)
     6b2:	f002 f841 	bl	2738 <_ZN7Pokitto7Display5printEPKc>
/home/manga/Projects/Pokitto/PyInSky/builds/1/PokittoLib/POKITTO_CORE/PokittoCore.cpp:375
    display.set_cursor(5*8,12*8);
     6b6:	2160      	movs	r1, #96	; 0x60
     6b8:	2028      	movs	r0, #40	; 0x28
     6ba:	f002 f84f 	bl	275c <_ZN7Pokitto7Display10set_cursorEhh>
/home/manga/Projects/Pokitto/PyInSky/builds/1/PokittoLib/POKITTO_CORE/PokittoCore.cpp:376
    display.print("PRESS");
     6be:	4839      	ldr	r0, [pc, #228]	; (7a4 <_ZN7Pokitto4Core9askLoaderEv+0x158>)
     6c0:	f002 f83a 	bl	2738 <_ZN7Pokitto7Display5printEPKc>
/home/manga/Projects/Pokitto/PyInSky/builds/1/PokittoLib/POKITTO_CORE/PokittoCore.cpp:377
    display.directcolor=COLOR_WHITE;
     6c4:	3c01      	subs	r4, #1
/home/manga/Projects/Pokitto/PyInSky/builds/1/PokittoLib/POKITTO_CORE/PokittoCore.cpp:378
    display.print(" C ");
     6c6:	4838      	ldr	r0, [pc, #224]	; (7a8 <_ZN7Pokitto4Core9askLoaderEv+0x15c>)
/home/manga/Projects/Pokitto/PyInSky/builds/1/PokittoLib/POKITTO_CORE/PokittoCore.cpp:377
    display.directcolor=COLOR_WHITE;
     6c8:	8034      	strh	r4, [r6, #0]
/home/manga/Projects/Pokitto/PyInSky/builds/1/PokittoLib/POKITTO_CORE/PokittoCore.cpp:378
    display.print(" C ");
     6ca:	f002 f835 	bl	2738 <_ZN7Pokitto7Display5printEPKc>
/home/manga/Projects/Pokitto/PyInSky/builds/1/PokittoLib/POKITTO_CORE/PokittoCore.cpp:380
    display.print("FOR LOADER");
     6ce:	4837      	ldr	r0, [pc, #220]	; (7ac <_ZN7Pokitto4Core9askLoaderEv+0x160>)
/home/manga/Projects/Pokitto/PyInSky/builds/1/PokittoLib/POKITTO_CORE/PokittoCore.cpp:379
    display.directcolor=COLOR_GREEN;
     6d0:	8037      	strh	r7, [r6, #0]
/home/manga/Projects/Pokitto/PyInSky/builds/1/PokittoLib/POKITTO_CORE/PokittoCore.cpp:380
    display.print("FOR LOADER");
     6d2:	f002 f831 	bl	2738 <_ZN7Pokitto7Display5printEPKc>
/home/manga/Projects/Pokitto/PyInSky/builds/1/PokittoLib/POKITTO_CORE/PokittoCore.cpp:382
    display.fontSize=2;
     6d6:	2302      	movs	r3, #2
/home/manga/Projects/Pokitto/PyInSky/builds/1/PokittoLib/POKITTO_CORE/PokittoCore.cpp:386
    countd = eeprom_read_byte((uint16_t*)EESETTINGS_LOADERWAIT);
     6d8:	4835      	ldr	r0, [pc, #212]	; (7b0 <_ZN7Pokitto4Core9askLoaderEv+0x164>)
/home/manga/Projects/Pokitto/PyInSky/builds/1/PokittoLib/POKITTO_CORE/PokittoCore.cpp:382
    display.fontSize=2;
     6da:	702b      	strb	r3, [r5, #0]
/home/manga/Projects/Pokitto/PyInSky/builds/1/PokittoLib/POKITTO_CORE/PokittoCore.cpp:381
    display.directcolor=COLOR_WHITE;
     6dc:	8034      	strh	r4, [r6, #0]
/home/manga/Projects/Pokitto/PyInSky/builds/1/PokittoLib/POKITTO_CORE/PokittoCore.cpp:386
    countd = eeprom_read_byte((uint16_t*)EESETTINGS_LOADERWAIT);
     6de:	f003 ff31 	bl	4544 <_Z16eeprom_read_bytePt>
/home/manga/Projects/Pokitto/PyInSky/builds/1/PokittoLib/POKITTO_CORE/PokittoCore.cpp:388
    if (countd<=0 || countd > 5) countd=3;
     6e2:	1903      	adds	r3, r0, r4
     6e4:	2b04      	cmp	r3, #4
     6e6:	d900      	bls.n	6ea <_ZN7Pokitto4Core9askLoaderEv+0x9e>
     6e8:	2003      	movs	r0, #3
     6ea:	0004      	movs	r4, r0
/home/manga/Projects/Pokitto/PyInSky/builds/1/PokittoLib/POKITTO_CORE/PokittoCore.cpp:389
    uint16_t c2 = getTime();
     6ec:	f003 fc66 	bl	3fbc <_ZN7Pokitto4Core7getTimeEv>
     6f0:	b286      	uxth	r6, r0
/home/manga/Projects/Pokitto/PyInSky/builds/1/PokittoLib/POKITTO_CORE/PokittoCore.cpp:390
    while (countd) {
     6f2:	2c00      	cmp	r4, #0
     6f4:	d038      	beq.n	768 <_ZN7Pokitto4Core9askLoaderEv+0x11c>
/home/manga/Projects/Pokitto/PyInSky/builds/1/PokittoLib/POKITTO_CORE/PokittoCore.cpp:391
        buttons.pollButtons();
     6f6:	f7ff fdb7 	bl	268 <_ZN7Pokitto7Buttons11pollButtonsEv>
/home/manga/Projects/Pokitto/PyInSky/builds/1/PokittoLib/POKITTO_CORE/PokittoCore.cpp:392
        display.set_cursor(13*8,15*8);
     6fa:	2178      	movs	r1, #120	; 0x78
     6fc:	2068      	movs	r0, #104	; 0x68
     6fe:	f002 f82d 	bl	275c <_ZN7Pokitto7Display10set_cursorEhh>
/home/manga/Projects/Pokitto/PyInSky/builds/1/PokittoLib/POKITTO_CORE/PokittoCore.cpp:393
        display.print(countd);
     702:	210a      	movs	r1, #10
     704:	0020      	movs	r0, r4
     706:	f002 f890 	bl	282a <_ZN7Pokitto7Display5printEii>
/home/manga/Projects/Pokitto/PyInSky/builds/1/PokittoLib/POKITTO_CORE/PokittoCore.cpp:394
        if (getTime()>uint32_t(c2+1000)) {
     70a:	f003 fc57 	bl	3fbc <_ZN7Pokitto4Core7getTimeEv>
     70e:	23fa      	movs	r3, #250	; 0xfa
     710:	009b      	lsls	r3, r3, #2
     712:	18f3      	adds	r3, r6, r3
     714:	4298      	cmp	r0, r3
     716:	d903      	bls.n	720 <_ZN7Pokitto4Core9askLoaderEv+0xd4>
/home/manga/Projects/Pokitto/PyInSky/builds/1/PokittoLib/POKITTO_CORE/PokittoCore.cpp:395
            c2=getTime();
     718:	f003 fc50 	bl	3fbc <_ZN7Pokitto4Core7getTimeEv>
/home/manga/Projects/Pokitto/PyInSky/builds/1/PokittoLib/POKITTO_CORE/PokittoCore.cpp:396
            countd--;
     71c:	3c01      	subs	r4, #1
/home/manga/Projects/Pokitto/PyInSky/builds/1/PokittoLib/POKITTO_CORE/PokittoCore.cpp:395
            c2=getTime();
     71e:	b286      	uxth	r6, r0
/home/manga/Projects/Pokitto/PyInSky/builds/1/PokittoLib/POKITTO_CORE/PokittoCore.cpp:398
        if (cBtn()) {while (cBtn()) buttons.pollButtons();jumpToLoader();countd=0;}
     720:	f002 ff3e 	bl	35a0 <_ZN7Pokitto4Core4cBtnEv>
     724:	2800      	cmp	r0, #0
     726:	d008      	beq.n	73a <_ZN7Pokitto4Core9askLoaderEv+0xee>
/home/manga/Projects/Pokitto/PyInSky/builds/1/PokittoLib/POKITTO_CORE/PokittoCore.cpp:398 (discriminator 4)
     728:	f002 ff3a 	bl	35a0 <_ZN7Pokitto4Core4cBtnEv>
     72c:	1e04      	subs	r4, r0, #0
     72e:	d002      	beq.n	736 <_ZN7Pokitto4Core9askLoaderEv+0xea>
/home/manga/Projects/Pokitto/PyInSky/builds/1/PokittoLib/POKITTO_CORE/PokittoCore.cpp:398 (discriminator 2)
     730:	f7ff fd9a 	bl	268 <_ZN7Pokitto7Buttons11pollButtonsEv>
     734:	e7f8      	b.n	728 <_ZN7Pokitto4Core9askLoaderEv+0xdc>
/home/manga/Projects/Pokitto/PyInSky/builds/1/PokittoLib/POKITTO_CORE/PokittoCore.cpp:398 (discriminator 3)
     736:	f7ff feb3 	bl	4a0 <_ZN7Pokitto4Core12jumpToLoaderEv>
/home/manga/Projects/Pokitto/PyInSky/builds/1/PokittoLib/POKITTO_CORE/PokittoCore.cpp:399
        if (aBtn()) {while (aBtn()) buttons.pollButtons();countd=0;}
     73a:	f002 ff25 	bl	3588 <_ZN7Pokitto4Core4aBtnEv>
     73e:	2800      	cmp	r0, #0
     740:	d007      	beq.n	752 <_ZN7Pokitto4Core9askLoaderEv+0x106>
/home/manga/Projects/Pokitto/PyInSky/builds/1/PokittoLib/POKITTO_CORE/PokittoCore.cpp:399 (discriminator 4)
     742:	f002 ff21 	bl	3588 <_ZN7Pokitto4Core4aBtnEv>
     746:	2800      	cmp	r0, #0
     748:	d002      	beq.n	750 <_ZN7Pokitto4Core9askLoaderEv+0x104>
/home/manga/Projects/Pokitto/PyInSky/builds/1/PokittoLib/POKITTO_CORE/PokittoCore.cpp:399 (discriminator 2)
     74a:	f7ff fd8d 	bl	268 <_ZN7Pokitto7Buttons11pollButtonsEv>
     74e:	e7f8      	b.n	742 <_ZN7Pokitto4Core9askLoaderEv+0xf6>
/home/manga/Projects/Pokitto/PyInSky/builds/1/PokittoLib/POKITTO_CORE/PokittoCore.cpp:399
     750:	0004      	movs	r4, r0
/home/manga/Projects/Pokitto/PyInSky/builds/1/PokittoLib/POKITTO_CORE/PokittoCore.cpp:400
        if (bBtn()) {while (bBtn()) buttons.pollButtons();countd=0;}
     752:	f002 ff1f 	bl	3594 <_ZN7Pokitto4Core4bBtnEv>
     756:	2800      	cmp	r0, #0
     758:	d0cb      	beq.n	6f2 <_ZN7Pokitto4Core9askLoaderEv+0xa6>
/home/manga/Projects/Pokitto/PyInSky/builds/1/PokittoLib/POKITTO_CORE/PokittoCore.cpp:400 (discriminator 4)
     75a:	f002 ff1b 	bl	3594 <_ZN7Pokitto4Core4bBtnEv>
     75e:	2800      	cmp	r0, #0
     760:	d002      	beq.n	768 <_ZN7Pokitto4Core9askLoaderEv+0x11c>
/home/manga/Projects/Pokitto/PyInSky/builds/1/PokittoLib/POKITTO_CORE/PokittoCore.cpp:400 (discriminator 2)
     762:	f7ff fd81 	bl	268 <_ZN7Pokitto7Buttons11pollButtonsEv>
     766:	e7f8      	b.n	75a <_ZN7Pokitto4Core9askLoaderEv+0x10e>
/home/manga/Projects/Pokitto/PyInSky/builds/1/PokittoLib/POKITTO_CORE/PokittoCore.cpp:402
    display.fontSize=1;
     768:	2301      	movs	r3, #1
     76a:	702b      	strb	r3, [r5, #0]
/home/manga/Projects/Pokitto/PyInSky/builds/1/PokittoLib/POKITTO_CORE/PokittoCore.cpp:403
    display.clearLCD();
     76c:	f000 fd76 	bl	125c <_ZN7Pokitto7Display8clearLCDEv>
/home/manga/Projects/Pokitto/PyInSky/builds/1/PokittoLib/POKITTO_CORE/PokittoCore.cpp:404
    display.enableDirectPrinting(false);
     770:	2000      	movs	r0, #0
     772:	f001 ff35 	bl	25e0 <_ZN7Pokitto7Display20enableDirectPrintingEh>
/home/manga/Projects/Pokitto/PyInSky/builds/1/PokittoLib/POKITTO_CORE/PokittoCore.cpp:405
}
     776:	bdf8      	pop	{r3, r4, r5, r6, r7, pc}
     778:	100015a2 	.word	0x100015a2
     77c:	10000106 	.word	0x10000106
     780:	fffff800 	.word	0xfffff800
     784:	00025160 	.word	0x00025160
     788:	10000116 	.word	0x10000116
     78c:	10000108 	.word	0x10000108
     790:	10000109 	.word	0x10000109
     794:	00025902 	.word	0x00025902
     798:	00025909 	.word	0x00025909
     79c:	00025910 	.word	0x00025910
     7a0:	00025917 	.word	0x00025917
     7a4:	00025864 	.word	0x00025864
     7a8:	0002586a 	.word	0x0002586a
     7ac:	0002586e 	.word	0x0002586e
     7b0:	00000fa2 	.word	0x00000fa2

000007b4 <_ZN7Pokitto4Core10drawvolbarEiiib>:
_ZN7Pokitto4Core10drawvolbarEiiib():
/home/manga/Projects/Pokitto/PyInSky/builds/1/PokittoLib/POKITTO_CORE/PokittoCore.cpp:408
void Core::drawvolbar(int x, int y, int level, bool text) {
     7b4:	b5f0      	push	{r4, r5, r6, r7, lr}
     7b6:	001d      	movs	r5, r3
/home/manga/Projects/Pokitto/PyInSky/builds/1/PokittoLib/POKITTO_CORE/PokittoCore.cpp:409
    uint16_t oldcol = display.directcolor;
     7b8:	4b98      	ldr	r3, [pc, #608]	; (a1c <_ZN7Pokitto4Core10drawvolbarEiiib+0x268>)
/home/manga/Projects/Pokitto/PyInSky/builds/1/PokittoLib/POKITTO_CORE/PokittoCore.cpp:408
void Core::drawvolbar(int x, int y, int level, bool text) {
     7ba:	b08b      	sub	sp, #44	; 0x2c
/home/manga/Projects/Pokitto/PyInSky/builds/1/PokittoLib/POKITTO_CORE/PokittoCore.cpp:409
    uint16_t oldcol = display.directcolor;
     7bc:	881b      	ldrh	r3, [r3, #0]
/home/manga/Projects/Pokitto/PyInSky/builds/1/PokittoLib/POKITTO_CORE/PokittoCore.cpp:408
void Core::drawvolbar(int x, int y, int level, bool text) {
     7be:	0004      	movs	r4, r0
     7c0:	9104      	str	r1, [sp, #16]
/home/manga/Projects/Pokitto/PyInSky/builds/1/PokittoLib/POKITTO_CORE/PokittoCore.cpp:409
    uint16_t oldcol = display.directcolor;
     7c2:	9309      	str	r3, [sp, #36]	; 0x24
/home/manga/Projects/Pokitto/PyInSky/builds/1/PokittoLib/POKITTO_CORE/PokittoCore.cpp:410
    level = level >> 5;
     7c4:	1157      	asrs	r7, r2, #5
/home/manga/Projects/Pokitto/PyInSky/builds/1/PokittoLib/POKITTO_CORE/PokittoCore.cpp:411
    if (text) display.directRectangle(0,0,50,50,COLOR_BLACK);
     7c6:	2d00      	cmp	r5, #0
     7c8:	d006      	beq.n	7d8 <_ZN7Pokitto4Core10drawvolbarEiiib+0x24>
/home/manga/Projects/Pokitto/PyInSky/builds/1/PokittoLib/POKITTO_CORE/PokittoCore.cpp:411 (discriminator 1)
     7ca:	2000      	movs	r0, #0
     7cc:	2332      	movs	r3, #50	; 0x32
     7ce:	9000      	str	r0, [sp, #0]
     7d0:	001a      	movs	r2, r3
     7d2:	0001      	movs	r1, r0
     7d4:	f000 fd66 	bl	12a4 <_ZN7Pokitto7Display15directRectangleEsssst>
     7d8:	466a      	mov	r2, sp
     7da:	2110      	movs	r1, #16
     7dc:	5e52      	ldrsh	r2, [r2, r1]
     7de:	4b8f      	ldr	r3, [pc, #572]	; (a1c <_ZN7Pokitto4Core10drawvolbarEiiib+0x268>)
     7e0:	9202      	str	r2, [sp, #8]
     7e2:	b226      	sxth	r6, r4
/home/manga/Projects/Pokitto/PyInSky/builds/1/PokittoLib/POKITTO_CORE/PokittoCore.cpp:412
    if (level<4)  display.directcolor = COLOR_GREEN;
     7e4:	2f03      	cmp	r7, #3
     7e6:	dc05      	bgt.n	7f4 <_ZN7Pokitto4Core10drawvolbarEiiib+0x40>
/home/manga/Projects/Pokitto/PyInSky/builds/1/PokittoLib/POKITTO_CORE/PokittoCore.cpp:412 (discriminator 1)
     7e8:	22fc      	movs	r2, #252	; 0xfc
     7ea:	00d2      	lsls	r2, r2, #3
/home/manga/Projects/Pokitto/PyInSky/builds/1/PokittoLib/POKITTO_CORE/PokittoCore.cpp:414 (discriminator 1)
    if (level>4) display.directcolor = COLOR_RED;
     7ec:	801a      	strh	r2, [r3, #0]
/home/manga/Projects/Pokitto/PyInSky/builds/1/PokittoLib/POKITTO_CORE/PokittoCore.cpp:416
    if (text) {
     7ee:	2d00      	cmp	r5, #0
     7f0:	d021      	beq.n	836 <_ZN7Pokitto4Core10drawvolbarEiiib+0x82>
     7f2:	e009      	b.n	808 <_ZN7Pokitto4Core10drawvolbarEiiib+0x54>
/home/manga/Projects/Pokitto/PyInSky/builds/1/PokittoLib/POKITTO_CORE/PokittoCore.cpp:413
    if (level==4) display.directcolor = COLOR_YELLOW;
     7f4:	2f04      	cmp	r7, #4
     7f6:	d000      	beq.n	7fa <_ZN7Pokitto4Core10drawvolbarEiiib+0x46>
     7f8:	e102      	b.n	a00 <_ZN7Pokitto4Core10drawvolbarEiiib+0x24c>
/home/manga/Projects/Pokitto/PyInSky/builds/1/PokittoLib/POKITTO_CORE/PokittoCore.cpp:413 (discriminator 1)
     7fa:	2320      	movs	r3, #32
     7fc:	4a87      	ldr	r2, [pc, #540]	; (a1c <_ZN7Pokitto4Core10drawvolbarEiiib+0x268>)
     7fe:	425b      	negs	r3, r3
     800:	8013      	strh	r3, [r2, #0]
/home/manga/Projects/Pokitto/PyInSky/builds/1/PokittoLib/POKITTO_CORE/PokittoCore.cpp:416 (discriminator 1)
    if (text) {
     802:	2d00      	cmp	r5, #0
     804:	d100      	bne.n	808 <_ZN7Pokitto4Core10drawvolbarEiiib+0x54>
     806:	e100      	b.n	a0a <_ZN7Pokitto4Core10drawvolbarEiiib+0x256>
/home/manga/Projects/Pokitto/PyInSky/builds/1/PokittoLib/POKITTO_CORE/PokittoCore.cpp:417
            bool temp = display.isDirectPrintingEnabled();
     808:	f001 fee2 	bl	25d0 <_ZN7Pokitto7Display23isDirectPrintingEnabledEv>
     80c:	0005      	movs	r5, r0
/home/manga/Projects/Pokitto/PyInSky/builds/1/PokittoLib/POKITTO_CORE/PokittoCore.cpp:418
            display.enableDirectPrinting(true);
     80e:	2001      	movs	r0, #1
     810:	f001 fee6 	bl	25e0 <_ZN7Pokitto7Display20enableDirectPrintingEh>
/home/manga/Projects/Pokitto/PyInSky/builds/1/PokittoLib/POKITTO_CORE/PokittoCore.cpp:419
            display.print(x-1,y-20,(int)sound.getVolume());
     814:	f002 fd0c 	bl	3230 <_ZN7Pokitto5Sound9getVolumeEv>
     818:	9904      	ldr	r1, [sp, #16]
     81a:	0002      	movs	r2, r0
     81c:	3914      	subs	r1, #20
     81e:	1e60      	subs	r0, r4, #1
     820:	b2c9      	uxtb	r1, r1
     822:	b2c0      	uxtb	r0, r0
     824:	230a      	movs	r3, #10
     826:	f002 f805 	bl	2834 <_ZN7Pokitto7Display5printEhhii>
/home/manga/Projects/Pokitto/PyInSky/builds/1/PokittoLib/POKITTO_CORE/PokittoCore.cpp:420
            display.print("  ");
     82a:	487d      	ldr	r0, [pc, #500]	; (a20 <_ZN7Pokitto4Core10drawvolbarEiiib+0x26c>)
     82c:	f001 ff84 	bl	2738 <_ZN7Pokitto7Display5printEPKc>
/home/manga/Projects/Pokitto/PyInSky/builds/1/PokittoLib/POKITTO_CORE/PokittoCore.cpp:421
            display.enableDirectPrinting(temp);
     830:	0028      	movs	r0, r5
     832:	f001 fed5 	bl	25e0 <_ZN7Pokitto7Display20enableDirectPrintingEh>
/home/manga/Projects/Pokitto/PyInSky/builds/1/PokittoLib/POKITTO_CORE/PokittoCore.cpp:423
    if (level<1) display.directcolor = COLOR_GRAY_80;
     836:	2f00      	cmp	r7, #0
     838:	dc02      	bgt.n	840 <_ZN7Pokitto4Core10drawvolbarEiiib+0x8c>
/home/manga/Projects/Pokitto/PyInSky/builds/1/PokittoLib/POKITTO_CORE/PokittoCore.cpp:423 (discriminator 1)
     83a:	4b78      	ldr	r3, [pc, #480]	; (a1c <_ZN7Pokitto4Core10drawvolbarEiiib+0x268>)
     83c:	4a79      	ldr	r2, [pc, #484]	; (a24 <_ZN7Pokitto4Core10drawvolbarEiiib+0x270>)
     83e:	801a      	strh	r2, [r3, #0]
/home/manga/Projects/Pokitto/PyInSky/builds/1/PokittoLib/POKITTO_CORE/PokittoCore.cpp:424
    display.directBitmap(x,y,Pokitto_volumebar,1,1);
     840:	2301      	movs	r3, #1
     842:	4a79      	ldr	r2, [pc, #484]	; (a28 <_ZN7Pokitto4Core10drawvolbarEiiib+0x274>)
     844:	9300      	str	r3, [sp, #0]
     846:	9902      	ldr	r1, [sp, #8]
     848:	0030      	movs	r0, r6
     84a:	f000 fd41 	bl	12d0 <_ZN7Pokitto7Display12directBitmapEssPKhhh>
/home/manga/Projects/Pokitto/PyInSky/builds/1/PokittoLib/POKITTO_CORE/PokittoCore.cpp:425
    if (level<2) display.directcolor = COLOR_GRAY_80;
     84e:	2f01      	cmp	r7, #1
     850:	dc02      	bgt.n	858 <_ZN7Pokitto4Core10drawvolbarEiiib+0xa4>
/home/manga/Projects/Pokitto/PyInSky/builds/1/PokittoLib/POKITTO_CORE/PokittoCore.cpp:425 (discriminator 1)
     852:	4b72      	ldr	r3, [pc, #456]	; (a1c <_ZN7Pokitto4Core10drawvolbarEiiib+0x268>)
     854:	4a73      	ldr	r2, [pc, #460]	; (a24 <_ZN7Pokitto4Core10drawvolbarEiiib+0x270>)
     856:	801a      	strh	r2, [r3, #0]
/home/manga/Projects/Pokitto/PyInSky/builds/1/PokittoLib/POKITTO_CORE/PokittoCore.cpp:426
    display.directBitmap(x+8,y,Pokitto_volumebar,1,1);
     858:	b2a3      	uxth	r3, r4
     85a:	001d      	movs	r5, r3
     85c:	2601      	movs	r6, #1
     85e:	4c72      	ldr	r4, [pc, #456]	; (a28 <_ZN7Pokitto4Core10drawvolbarEiiib+0x274>)
     860:	3508      	adds	r5, #8
     862:	b22d      	sxth	r5, r5
     864:	9303      	str	r3, [sp, #12]
     866:	0022      	movs	r2, r4
     868:	0033      	movs	r3, r6
     86a:	9902      	ldr	r1, [sp, #8]
     86c:	0028      	movs	r0, r5
     86e:	9600      	str	r6, [sp, #0]
     870:	f000 fd2e 	bl	12d0 <_ZN7Pokitto7Display12directBitmapEssPKhhh>
/home/manga/Projects/Pokitto/PyInSky/builds/1/PokittoLib/POKITTO_CORE/PokittoCore.cpp:427
    display.directBitmap(x+8,y-4,Pokitto_volumebar,1,1);
     874:	466b      	mov	r3, sp
     876:	8a1b      	ldrh	r3, [r3, #16]
     878:	0022      	movs	r2, r4
     87a:	9304      	str	r3, [sp, #16]
     87c:	3b04      	subs	r3, #4
     87e:	b21b      	sxth	r3, r3
     880:	9305      	str	r3, [sp, #20]
     882:	9600      	str	r6, [sp, #0]
     884:	0033      	movs	r3, r6
     886:	9905      	ldr	r1, [sp, #20]
     888:	0028      	movs	r0, r5
     88a:	f000 fd21 	bl	12d0 <_ZN7Pokitto7Display12directBitmapEssPKhhh>
/home/manga/Projects/Pokitto/PyInSky/builds/1/PokittoLib/POKITTO_CORE/PokittoCore.cpp:428
    if (level<3) display.directcolor = COLOR_GRAY_80;
     88e:	2f02      	cmp	r7, #2
     890:	dc02      	bgt.n	898 <_ZN7Pokitto4Core10drawvolbarEiiib+0xe4>
/home/manga/Projects/Pokitto/PyInSky/builds/1/PokittoLib/POKITTO_CORE/PokittoCore.cpp:428 (discriminator 1)
     892:	4b62      	ldr	r3, [pc, #392]	; (a1c <_ZN7Pokitto4Core10drawvolbarEiiib+0x268>)
     894:	4a63      	ldr	r2, [pc, #396]	; (a24 <_ZN7Pokitto4Core10drawvolbarEiiib+0x270>)
     896:	801a      	strh	r2, [r3, #0]
/home/manga/Projects/Pokitto/PyInSky/builds/1/PokittoLib/POKITTO_CORE/PokittoCore.cpp:429
    display.directBitmap(x+16,y,Pokitto_volumebar,1,1);
     898:	2501      	movs	r5, #1
     89a:	9e03      	ldr	r6, [sp, #12]
     89c:	002b      	movs	r3, r5
     89e:	3610      	adds	r6, #16
     8a0:	b236      	sxth	r6, r6
     8a2:	0022      	movs	r2, r4
     8a4:	9902      	ldr	r1, [sp, #8]
     8a6:	0030      	movs	r0, r6
     8a8:	9500      	str	r5, [sp, #0]
     8aa:	f000 fd11 	bl	12d0 <_ZN7Pokitto7Display12directBitmapEssPKhhh>
/home/manga/Projects/Pokitto/PyInSky/builds/1/PokittoLib/POKITTO_CORE/PokittoCore.cpp:430
    display.directBitmap(x+16,y-4,Pokitto_volumebar,1,1);
     8ae:	002b      	movs	r3, r5
     8b0:	0022      	movs	r2, r4
     8b2:	9905      	ldr	r1, [sp, #20]
     8b4:	0030      	movs	r0, r6
     8b6:	9500      	str	r5, [sp, #0]
     8b8:	f000 fd0a 	bl	12d0 <_ZN7Pokitto7Display12directBitmapEssPKhhh>
/home/manga/Projects/Pokitto/PyInSky/builds/1/PokittoLib/POKITTO_CORE/PokittoCore.cpp:431
    display.directBitmap(x+16,y-8,Pokitto_volumebar,1,1);
     8bc:	9b04      	ldr	r3, [sp, #16]
     8be:	9500      	str	r5, [sp, #0]
     8c0:	3b08      	subs	r3, #8
     8c2:	b21b      	sxth	r3, r3
     8c4:	9306      	str	r3, [sp, #24]
     8c6:	0022      	movs	r2, r4
     8c8:	002b      	movs	r3, r5
     8ca:	9906      	ldr	r1, [sp, #24]
     8cc:	0030      	movs	r0, r6
     8ce:	f000 fcff 	bl	12d0 <_ZN7Pokitto7Display12directBitmapEssPKhhh>
/home/manga/Projects/Pokitto/PyInSky/builds/1/PokittoLib/POKITTO_CORE/PokittoCore.cpp:432
    if (level<4) {
     8d2:	2f03      	cmp	r7, #3
     8d4:	dc02      	bgt.n	8dc <_ZN7Pokitto4Core10drawvolbarEiiib+0x128>
/home/manga/Projects/Pokitto/PyInSky/builds/1/PokittoLib/POKITTO_CORE/PokittoCore.cpp:433
            display.directcolor = COLOR_GRAY_80;
     8d6:	4b51      	ldr	r3, [pc, #324]	; (a1c <_ZN7Pokitto4Core10drawvolbarEiiib+0x268>)
     8d8:	4a52      	ldr	r2, [pc, #328]	; (a24 <_ZN7Pokitto4Core10drawvolbarEiiib+0x270>)
     8da:	801a      	strh	r2, [r3, #0]
/home/manga/Projects/Pokitto/PyInSky/builds/1/PokittoLib/POKITTO_CORE/PokittoCore.cpp:435
    display.directBitmap(x+24,y,Pokitto_volumebar,1,1);
     8dc:	2401      	movs	r4, #1
     8de:	9d03      	ldr	r5, [sp, #12]
     8e0:	4e51      	ldr	r6, [pc, #324]	; (a28 <_ZN7Pokitto4Core10drawvolbarEiiib+0x274>)
     8e2:	3518      	adds	r5, #24
     8e4:	b22d      	sxth	r5, r5
     8e6:	0023      	movs	r3, r4
     8e8:	0032      	movs	r2, r6
     8ea:	9902      	ldr	r1, [sp, #8]
     8ec:	0028      	movs	r0, r5
     8ee:	9400      	str	r4, [sp, #0]
     8f0:	f000 fcee 	bl	12d0 <_ZN7Pokitto7Display12directBitmapEssPKhhh>
/home/manga/Projects/Pokitto/PyInSky/builds/1/PokittoLib/POKITTO_CORE/PokittoCore.cpp:436
    display.directBitmap(x+24,y-4,Pokitto_volumebar,1,1);
     8f4:	0023      	movs	r3, r4
     8f6:	0032      	movs	r2, r6
     8f8:	9905      	ldr	r1, [sp, #20]
     8fa:	0028      	movs	r0, r5
     8fc:	9400      	str	r4, [sp, #0]
     8fe:	f000 fce7 	bl	12d0 <_ZN7Pokitto7Display12directBitmapEssPKhhh>
/home/manga/Projects/Pokitto/PyInSky/builds/1/PokittoLib/POKITTO_CORE/PokittoCore.cpp:437
    display.directBitmap(x+24,y-8,Pokitto_volumebar,1,1);
     902:	0023      	movs	r3, r4
     904:	0032      	movs	r2, r6
     906:	9906      	ldr	r1, [sp, #24]
     908:	0028      	movs	r0, r5
     90a:	9400      	str	r4, [sp, #0]
     90c:	f000 fce0 	bl	12d0 <_ZN7Pokitto7Display12directBitmapEssPKhhh>
/home/manga/Projects/Pokitto/PyInSky/builds/1/PokittoLib/POKITTO_CORE/PokittoCore.cpp:438
    display.directBitmap(x+24,y-12,Pokitto_volumebar,1,1);
     910:	9b04      	ldr	r3, [sp, #16]
     912:	9400      	str	r4, [sp, #0]
     914:	3b0c      	subs	r3, #12
     916:	b21b      	sxth	r3, r3
     918:	9307      	str	r3, [sp, #28]
     91a:	0032      	movs	r2, r6
     91c:	0023      	movs	r3, r4
     91e:	9907      	ldr	r1, [sp, #28]
     920:	0028      	movs	r0, r5
     922:	f000 fcd5 	bl	12d0 <_ZN7Pokitto7Display12directBitmapEssPKhhh>
/home/manga/Projects/Pokitto/PyInSky/builds/1/PokittoLib/POKITTO_CORE/PokittoCore.cpp:440
    if (level<5) {
     926:	2f04      	cmp	r7, #4
     928:	dc02      	bgt.n	930 <_ZN7Pokitto4Core10drawvolbarEiiib+0x17c>
/home/manga/Projects/Pokitto/PyInSky/builds/1/PokittoLib/POKITTO_CORE/PokittoCore.cpp:441
            display.directcolor = COLOR_GRAY_80;
     92a:	4b3c      	ldr	r3, [pc, #240]	; (a1c <_ZN7Pokitto4Core10drawvolbarEiiib+0x268>)
     92c:	4a3d      	ldr	r2, [pc, #244]	; (a24 <_ZN7Pokitto4Core10drawvolbarEiiib+0x270>)
     92e:	801a      	strh	r2, [r3, #0]
/home/manga/Projects/Pokitto/PyInSky/builds/1/PokittoLib/POKITTO_CORE/PokittoCore.cpp:443
    display.directBitmap(x+32,y,Pokitto_volumebar,1,1);
     930:	2401      	movs	r4, #1
     932:	9d03      	ldr	r5, [sp, #12]
     934:	4e3c      	ldr	r6, [pc, #240]	; (a28 <_ZN7Pokitto4Core10drawvolbarEiiib+0x274>)
     936:	3520      	adds	r5, #32
     938:	b22d      	sxth	r5, r5
     93a:	0023      	movs	r3, r4
     93c:	0032      	movs	r2, r6
     93e:	9902      	ldr	r1, [sp, #8]
     940:	0028      	movs	r0, r5
     942:	9400      	str	r4, [sp, #0]
     944:	f000 fcc4 	bl	12d0 <_ZN7Pokitto7Display12directBitmapEssPKhhh>
/home/manga/Projects/Pokitto/PyInSky/builds/1/PokittoLib/POKITTO_CORE/PokittoCore.cpp:444
    display.directBitmap(x+32,y-4,Pokitto_volumebar,1,1);
     948:	0023      	movs	r3, r4
     94a:	0032      	movs	r2, r6
     94c:	9905      	ldr	r1, [sp, #20]
     94e:	0028      	movs	r0, r5
     950:	9400      	str	r4, [sp, #0]
     952:	f000 fcbd 	bl	12d0 <_ZN7Pokitto7Display12directBitmapEssPKhhh>
/home/manga/Projects/Pokitto/PyInSky/builds/1/PokittoLib/POKITTO_CORE/PokittoCore.cpp:445
    display.directBitmap(x+32,y-8,Pokitto_volumebar,1,1);
     956:	0023      	movs	r3, r4
     958:	0032      	movs	r2, r6
     95a:	9906      	ldr	r1, [sp, #24]
     95c:	0028      	movs	r0, r5
     95e:	9400      	str	r4, [sp, #0]
     960:	f000 fcb6 	bl	12d0 <_ZN7Pokitto7Display12directBitmapEssPKhhh>
/home/manga/Projects/Pokitto/PyInSky/builds/1/PokittoLib/POKITTO_CORE/PokittoCore.cpp:446
    display.directBitmap(x+32,y-12,Pokitto_volumebar,1,1);
     964:	0023      	movs	r3, r4
     966:	0032      	movs	r2, r6
     968:	9907      	ldr	r1, [sp, #28]
     96a:	0028      	movs	r0, r5
     96c:	9400      	str	r4, [sp, #0]
     96e:	f000 fcaf 	bl	12d0 <_ZN7Pokitto7Display12directBitmapEssPKhhh>
/home/manga/Projects/Pokitto/PyInSky/builds/1/PokittoLib/POKITTO_CORE/PokittoCore.cpp:447
    display.directBitmap(x+32,y-16,Pokitto_volumebar,1,1);
     972:	9b04      	ldr	r3, [sp, #16]
     974:	9400      	str	r4, [sp, #0]
     976:	3b10      	subs	r3, #16
     978:	b21b      	sxth	r3, r3
     97a:	9308      	str	r3, [sp, #32]
     97c:	0032      	movs	r2, r6
     97e:	0023      	movs	r3, r4
     980:	9908      	ldr	r1, [sp, #32]
     982:	0028      	movs	r0, r5
     984:	f000 fca4 	bl	12d0 <_ZN7Pokitto7Display12directBitmapEssPKhhh>
/home/manga/Projects/Pokitto/PyInSky/builds/1/PokittoLib/POKITTO_CORE/PokittoCore.cpp:449
    if (level<6) {
     988:	2f05      	cmp	r7, #5
     98a:	dc02      	bgt.n	992 <_ZN7Pokitto4Core10drawvolbarEiiib+0x1de>
/home/manga/Projects/Pokitto/PyInSky/builds/1/PokittoLib/POKITTO_CORE/PokittoCore.cpp:450
            display.directcolor = COLOR_GRAY_80;
     98c:	4b25      	ldr	r3, [pc, #148]	; (a24 <_ZN7Pokitto4Core10drawvolbarEiiib+0x270>)
     98e:	4a23      	ldr	r2, [pc, #140]	; (a1c <_ZN7Pokitto4Core10drawvolbarEiiib+0x268>)
     990:	8013      	strh	r3, [r2, #0]
/home/manga/Projects/Pokitto/PyInSky/builds/1/PokittoLib/POKITTO_CORE/PokittoCore.cpp:452
    display.directBitmap(x+40,y,Pokitto_volumebar,1,1);
     992:	2501      	movs	r5, #1
     994:	9c03      	ldr	r4, [sp, #12]
     996:	4e24      	ldr	r6, [pc, #144]	; (a28 <_ZN7Pokitto4Core10drawvolbarEiiib+0x274>)
     998:	3428      	adds	r4, #40	; 0x28
     99a:	b224      	sxth	r4, r4
     99c:	002b      	movs	r3, r5
     99e:	0032      	movs	r2, r6
     9a0:	9902      	ldr	r1, [sp, #8]
     9a2:	0020      	movs	r0, r4
     9a4:	9500      	str	r5, [sp, #0]
     9a6:	f000 fc93 	bl	12d0 <_ZN7Pokitto7Display12directBitmapEssPKhhh>
/home/manga/Projects/Pokitto/PyInSky/builds/1/PokittoLib/POKITTO_CORE/PokittoCore.cpp:453
    display.directBitmap(x+40,y-4,Pokitto_volumebar,1,1);
     9aa:	002b      	movs	r3, r5
     9ac:	0032      	movs	r2, r6
     9ae:	9905      	ldr	r1, [sp, #20]
     9b0:	0020      	movs	r0, r4
     9b2:	9500      	str	r5, [sp, #0]
     9b4:	f000 fc8c 	bl	12d0 <_ZN7Pokitto7Display12directBitmapEssPKhhh>
/home/manga/Projects/Pokitto/PyInSky/builds/1/PokittoLib/POKITTO_CORE/PokittoCore.cpp:454
    display.directBitmap(x+40,y-8,Pokitto_volumebar,1,1);
     9b8:	002b      	movs	r3, r5
     9ba:	0032      	movs	r2, r6
     9bc:	9906      	ldr	r1, [sp, #24]
     9be:	0020      	movs	r0, r4
     9c0:	9500      	str	r5, [sp, #0]
     9c2:	f000 fc85 	bl	12d0 <_ZN7Pokitto7Display12directBitmapEssPKhhh>
/home/manga/Projects/Pokitto/PyInSky/builds/1/PokittoLib/POKITTO_CORE/PokittoCore.cpp:455
    display.directBitmap(x+40,y-12,Pokitto_volumebar,1,1);
     9c6:	002b      	movs	r3, r5
     9c8:	0032      	movs	r2, r6
     9ca:	9907      	ldr	r1, [sp, #28]
     9cc:	0020      	movs	r0, r4
     9ce:	9500      	str	r5, [sp, #0]
     9d0:	f000 fc7e 	bl	12d0 <_ZN7Pokitto7Display12directBitmapEssPKhhh>
/home/manga/Projects/Pokitto/PyInSky/builds/1/PokittoLib/POKITTO_CORE/PokittoCore.cpp:456
    display.directBitmap(x+40,y-16,Pokitto_volumebar,1,1);
     9d4:	002b      	movs	r3, r5
     9d6:	0032      	movs	r2, r6
     9d8:	9908      	ldr	r1, [sp, #32]
     9da:	0020      	movs	r0, r4
     9dc:	9500      	str	r5, [sp, #0]
     9de:	f000 fc77 	bl	12d0 <_ZN7Pokitto7Display12directBitmapEssPKhhh>
/home/manga/Projects/Pokitto/PyInSky/builds/1/PokittoLib/POKITTO_CORE/PokittoCore.cpp:457
    display.directBitmap(x+40,y-20,Pokitto_volumebar,1,1);
     9e2:	9904      	ldr	r1, [sp, #16]
     9e4:	002b      	movs	r3, r5
     9e6:	3914      	subs	r1, #20
     9e8:	0032      	movs	r2, r6
     9ea:	b209      	sxth	r1, r1
     9ec:	9500      	str	r5, [sp, #0]
     9ee:	0020      	movs	r0, r4
     9f0:	f000 fc6e 	bl	12d0 <_ZN7Pokitto7Display12directBitmapEssPKhhh>
/home/manga/Projects/Pokitto/PyInSky/builds/1/PokittoLib/POKITTO_CORE/PokittoCore.cpp:458
    display.directcolor = oldcol;
     9f4:	466a      	mov	r2, sp
     9f6:	4b09      	ldr	r3, [pc, #36]	; (a1c <_ZN7Pokitto4Core10drawvolbarEiiib+0x268>)
     9f8:	8c92      	ldrh	r2, [r2, #36]	; 0x24
     9fa:	801a      	strh	r2, [r3, #0]
/home/manga/Projects/Pokitto/PyInSky/builds/1/PokittoLib/POKITTO_CORE/PokittoCore.cpp:459
}
     9fc:	b00b      	add	sp, #44	; 0x2c
     9fe:	bdf0      	pop	{r4, r5, r6, r7, pc}
/home/manga/Projects/Pokitto/PyInSky/builds/1/PokittoLib/POKITTO_CORE/PokittoCore.cpp:414
    if (level>4) display.directcolor = COLOR_RED;
     a00:	2f04      	cmp	r7, #4
     a02:	dc00      	bgt.n	a06 <_ZN7Pokitto4Core10drawvolbarEiiib+0x252>
     a04:	e6f3      	b.n	7ee <_ZN7Pokitto4Core10drawvolbarEiiib+0x3a>
/home/manga/Projects/Pokitto/PyInSky/builds/1/PokittoLib/POKITTO_CORE/PokittoCore.cpp:414 (discriminator 1)
     a06:	4a09      	ldr	r2, [pc, #36]	; (a2c <_ZN7Pokitto4Core10drawvolbarEiiib+0x278>)
     a08:	e6f0      	b.n	7ec <_ZN7Pokitto4Core10drawvolbarEiiib+0x38>
/home/manga/Projects/Pokitto/PyInSky/builds/1/PokittoLib/POKITTO_CORE/PokittoCore.cpp:424
    display.directBitmap(x,y,Pokitto_volumebar,1,1);
     a0a:	2301      	movs	r3, #1
     a0c:	4a06      	ldr	r2, [pc, #24]	; (a28 <_ZN7Pokitto4Core10drawvolbarEiiib+0x274>)
     a0e:	9300      	str	r3, [sp, #0]
     a10:	9902      	ldr	r1, [sp, #8]
     a12:	0030      	movs	r0, r6
     a14:	f000 fc5c 	bl	12d0 <_ZN7Pokitto7Display12directBitmapEssPKhhh>
     a18:	e71e      	b.n	858 <_ZN7Pokitto4Core10drawvolbarEiiib+0xa4>
     a1a:	46c0      	nop			; (mov r8, r8)
     a1c:	10000106 	.word	0x10000106
     a20:	000256b2 	.word	0x000256b2
     a24:	0000528a 	.word	0x0000528a
     a28:	00025e6a 	.word	0x00025e6a
     a2c:	fffff800 	.word	0xfffff800

00000a30 <_ZN7Pokitto4Core11setVolLimitEv>:
_ZN7Pokitto4Core11setVolLimitEv():
/home/manga/Projects/Pokitto/PyInSky/builds/1/PokittoLib/POKITTO_CORE/PokittoCore.cpp:467
void Core::setVolLimit() {
     a30:	b5f0      	push	{r4, r5, r6, r7, lr}
/home/manga/Projects/Pokitto/PyInSky/builds/1/PokittoLib/POKITTO_CORE/PokittoCore.cpp:468
    display.enableDirectPrinting(true);
     a32:	2001      	movs	r0, #1
/home/manga/Projects/Pokitto/PyInSky/builds/1/PokittoLib/POKITTO_CORE/PokittoCore.cpp:467
void Core::setVolLimit() {
     a34:	b087      	sub	sp, #28
/home/manga/Projects/Pokitto/PyInSky/builds/1/PokittoLib/POKITTO_CORE/PokittoCore.cpp:468
    display.enableDirectPrinting(true);
     a36:	f001 fdd3 	bl	25e0 <_ZN7Pokitto7Display20enableDirectPrintingEh>
/home/manga/Projects/Pokitto/PyInSky/builds/1/PokittoLib/POKITTO_CORE/PokittoCore.cpp:469
    display.adjustCharStep = 0;
     a3a:	2200      	movs	r2, #0
     a3c:	4b9e      	ldr	r3, [pc, #632]	; (cb8 <_ZN7Pokitto4Core11setVolLimitEv+0x288>)
     a3e:	701a      	strb	r2, [r3, #0]
/home/manga/Projects/Pokitto/PyInSky/builds/1/PokittoLib/POKITTO_CORE/PokittoCore.cpp:473
    float vol = sound.getVolume();
     a40:	f002 fbf6 	bl	3230 <_ZN7Pokitto5Sound9getVolumeEv>
/home/manga/Projects/Pokitto/PyInSky/builds/1/PokittoLib/POKITTO_CORE/PokittoCore.cpp:475
    vol=eeprom_read_byte((uint16_t*)EESETTINGS_VOL);
     a44:	20fa      	movs	r0, #250	; 0xfa
     a46:	0100      	lsls	r0, r0, #4
     a48:	f003 fd7c 	bl	4544 <_Z16eeprom_read_bytePt>
     a4c:	0004      	movs	r4, r0
     a4e:	f023 fb3d 	bl	240cc <__aeabi_ui2f>
/home/manga/Projects/Pokitto/PyInSky/builds/1/PokittoLib/POKITTO_CORE/PokittoCore.cpp:476
    Pokitto::Sound::globalVolume=vol;
     a52:	4b9a      	ldr	r3, [pc, #616]	; (cbc <_ZN7Pokitto4Core11setVolLimitEv+0x28c>)
/home/manga/Projects/Pokitto/PyInSky/builds/1/PokittoLib/POKITTO_CORE/PokittoCore.cpp:478
    if (vol>VOLUME_HEADPHONE_MAX) sound.setMaxVol(VOLUME_SPEAKER_MAX);
     a54:	499a      	ldr	r1, [pc, #616]	; (cc0 <_ZN7Pokitto4Core11setVolLimitEv+0x290>)
/home/manga/Projects/Pokitto/PyInSky/builds/1/PokittoLib/POKITTO_CORE/PokittoCore.cpp:476
    Pokitto::Sound::globalVolume=vol;
     a56:	801c      	strh	r4, [r3, #0]
/home/manga/Projects/Pokitto/PyInSky/builds/1/PokittoLib/POKITTO_CORE/PokittoCore.cpp:475
    vol=eeprom_read_byte((uint16_t*)EESETTINGS_VOL);
     a58:	1c05      	adds	r5, r0, #0
/home/manga/Projects/Pokitto/PyInSky/builds/1/PokittoLib/POKITTO_CORE/PokittoCore.cpp:478
    if (vol>VOLUME_HEADPHONE_MAX) sound.setMaxVol(VOLUME_SPEAKER_MAX);
     a5a:	f022 fb2d 	bl	230b8 <__aeabi_fcmpgt>
     a5e:	2800      	cmp	r0, #0
     a60:	d063      	beq.n	b2a <_ZN7Pokitto4Core11setVolLimitEv+0xfa>
/home/manga/Projects/Pokitto/PyInSky/builds/1/PokittoLib/POKITTO_CORE/PokittoCore.cpp:478 (discriminator 1)
     a62:	20ff      	movs	r0, #255	; 0xff
/home/manga/Projects/Pokitto/PyInSky/builds/1/PokittoLib/POKITTO_CORE/PokittoCore.cpp:479
    else sound.setMaxVol(VOLUME_HEADPHONE_MAX);
     a64:	f002 fbd0 	bl	3208 <_ZN7Pokitto5Sound9setMaxVolEs>
/home/manga/Projects/Pokitto/PyInSky/builds/1/PokittoLib/POKITTO_CORE/PokittoCore.cpp:487
	sound.setVolume(vol/4);
     a68:	21fa      	movs	r1, #250	; 0xfa
     a6a:	1c28      	adds	r0, r5, #0
     a6c:	0589      	lsls	r1, r1, #22
     a6e:	f022 ffcd 	bl	23a0c <__aeabi_fmul>
     a72:	f023 fac1 	bl	23ff8 <__aeabi_f2iz>
     a76:	b200      	sxth	r0, r0
     a78:	f002 fb7e 	bl	3178 <_ZN7Pokitto5Sound9setVolumeEs>
/home/manga/Projects/Pokitto/PyInSky/builds/1/PokittoLib/POKITTO_CORE/PokittoCore.cpp:488
	sound.setVolume(vol/2);
     a7c:	21fc      	movs	r1, #252	; 0xfc
     a7e:	1c28      	adds	r0, r5, #0
     a80:	0589      	lsls	r1, r1, #22
     a82:	f022 ffc3 	bl	23a0c <__aeabi_fmul>
     a86:	f023 fab7 	bl	23ff8 <__aeabi_f2iz>
     a8a:	b200      	sxth	r0, r0
     a8c:	f002 fb74 	bl	3178 <_ZN7Pokitto5Sound9setVolumeEs>
/home/manga/Projects/Pokitto/PyInSky/builds/1/PokittoLib/POKITTO_CORE/PokittoCore.cpp:489
	sound.setVolume(vol); //prevent "crack" by gradually increasing volume
     a90:	b220      	sxth	r0, r4
     a92:	f002 fb71 	bl	3178 <_ZN7Pokitto5Sound9setVolumeEs>
/home/manga/Projects/Pokitto/PyInSky/builds/1/PokittoLib/POKITTO_CORE/PokittoCore.cpp:491
    volbar_visible=0;
     a96:	2200      	movs	r2, #0
/home/manga/Projects/Pokitto/PyInSky/builds/1/PokittoLib/POKITTO_CORE/PokittoCore.cpp:490
	discrete_vol = ((int)vol>>5); // fix "shows zero" in volume slider bug
     a98:	4b8a      	ldr	r3, [pc, #552]	; (cc4 <_ZN7Pokitto4Core11setVolLimitEv+0x294>)
     a9a:	1164      	asrs	r4, r4, #5
     a9c:	701c      	strb	r4, [r3, #0]
/home/manga/Projects/Pokitto/PyInSky/builds/1/PokittoLib/POKITTO_CORE/PokittoCore.cpp:491
    volbar_visible=0;
     a9e:	4b8a      	ldr	r3, [pc, #552]	; (cc8 <_ZN7Pokitto4Core11setVolLimitEv+0x298>)
/home/manga/Projects/Pokitto/PyInSky/builds/1/PokittoLib/POKITTO_CORE/PokittoCore.cpp:495
    countd = eeprom_read_byte((uint16_t*)EESETTINGS_VOLWAIT);
     aa0:	488a      	ldr	r0, [pc, #552]	; (ccc <_ZN7Pokitto4Core11setVolLimitEv+0x29c>)
/home/manga/Projects/Pokitto/PyInSky/builds/1/PokittoLib/POKITTO_CORE/PokittoCore.cpp:491
    volbar_visible=0;
     aa2:	701a      	strb	r2, [r3, #0]
/home/manga/Projects/Pokitto/PyInSky/builds/1/PokittoLib/POKITTO_CORE/PokittoCore.cpp:495
    countd = eeprom_read_byte((uint16_t*)EESETTINGS_VOLWAIT);
     aa4:	f003 fd4e 	bl	4544 <_Z16eeprom_read_bytePt>
/home/manga/Projects/Pokitto/PyInSky/builds/1/PokittoLib/POKITTO_CORE/PokittoCore.cpp:497
    if (countd<=0 || countd > 10) countd=0xFFFF;
     aa8:	1e43      	subs	r3, r0, #1
/home/manga/Projects/Pokitto/PyInSky/builds/1/PokittoLib/POKITTO_CORE/PokittoCore.cpp:495
    countd = eeprom_read_byte((uint16_t*)EESETTINGS_VOLWAIT);
     aaa:	0004      	movs	r4, r0
/home/manga/Projects/Pokitto/PyInSky/builds/1/PokittoLib/POKITTO_CORE/PokittoCore.cpp:497
    if (countd<=0 || countd > 10) countd=0xFFFF;
     aac:	2b09      	cmp	r3, #9
     aae:	d900      	bls.n	ab2 <_ZN7Pokitto4Core11setVolLimitEv+0x82>
     ab0:	4c87      	ldr	r4, [pc, #540]	; (cd0 <_ZN7Pokitto4Core11setVolLimitEv+0x2a0>)
/home/manga/Projects/Pokitto/PyInSky/builds/1/PokittoLib/POKITTO_CORE/PokittoCore.cpp:501
    uint16_t c2 = getTime();
     ab2:	f003 fa83 	bl	3fbc <_ZN7Pokitto4Core7getTimeEv>
     ab6:	b283      	uxth	r3, r0
     ab8:	9304      	str	r3, [sp, #16]
/home/manga/Projects/Pokitto/PyInSky/builds/1/PokittoLib/POKITTO_CORE/PokittoCore.cpp:472
    bool wipe = true;
     aba:	2301      	movs	r3, #1
/home/manga/Projects/Pokitto/PyInSky/builds/1/PokittoLib/POKITTO_CORE/PokittoCore.cpp:540
            display.directcolor = COLOR_GREEN;
     abc:	27fc      	movs	r7, #252	; 0xfc
/home/manga/Projects/Pokitto/PyInSky/builds/1/PokittoLib/POKITTO_CORE/PokittoCore.cpp:471
    int dstate=1;
     abe:	001d      	movs	r5, r3
/home/manga/Projects/Pokitto/PyInSky/builds/1/PokittoLib/POKITTO_CORE/PokittoCore.cpp:472
    bool wipe = true;
     ac0:	9303      	str	r3, [sp, #12]
/home/manga/Projects/Pokitto/PyInSky/builds/1/PokittoLib/POKITTO_CORE/PokittoCore.cpp:540
            display.directcolor = COLOR_GREEN;
     ac2:	00ff      	lsls	r7, r7, #3
_ZN7Pokitto4Core9isRunningEv():
/home/manga/Projects/Pokitto/PyInSky/builds/1/PokittoLib/POKITTO_CORE/PokittoCore.cpp:735
    return run_state;
     ac4:	4b83      	ldr	r3, [pc, #524]	; (cd4 <_ZN7Pokitto4Core11setVolLimitEv+0x2a4>)
_ZN7Pokitto4Core11setVolLimitEv():
/home/manga/Projects/Pokitto/PyInSky/builds/1/PokittoLib/POKITTO_CORE/PokittoCore.cpp:502
    while (core.isRunning() && dstate && countd){
     ac6:	781b      	ldrb	r3, [r3, #0]
     ac8:	2b00      	cmp	r3, #0
     aca:	d032      	beq.n	b32 <_ZN7Pokitto4Core11setVolLimitEv+0x102>
/home/manga/Projects/Pokitto/PyInSky/builds/1/PokittoLib/POKITTO_CORE/PokittoCore.cpp:502 (discriminator 1)
     acc:	2d00      	cmp	r5, #0
     ace:	d030      	beq.n	b32 <_ZN7Pokitto4Core11setVolLimitEv+0x102>
/home/manga/Projects/Pokitto/PyInSky/builds/1/PokittoLib/POKITTO_CORE/PokittoCore.cpp:502 (discriminator 3)
     ad0:	2c00      	cmp	r4, #0
     ad2:	d02e      	beq.n	b32 <_ZN7Pokitto4Core11setVolLimitEv+0x102>
/home/manga/Projects/Pokitto/PyInSky/builds/1/PokittoLib/POKITTO_CORE/PokittoCore.cpp:503
        if (getTime()>uint32_t(c2+1000)) {
     ad4:	f003 fa72 	bl	3fbc <_ZN7Pokitto4Core7getTimeEv>
     ad8:	22fa      	movs	r2, #250	; 0xfa
     ada:	9b04      	ldr	r3, [sp, #16]
     adc:	0092      	lsls	r2, r2, #2
     ade:	189b      	adds	r3, r3, r2
     ae0:	4298      	cmp	r0, r3
     ae2:	d908      	bls.n	af6 <_ZN7Pokitto4Core11setVolLimitEv+0xc6>
/home/manga/Projects/Pokitto/PyInSky/builds/1/PokittoLib/POKITTO_CORE/PokittoCore.cpp:504
            c2=getTime();
     ae4:	f003 fa6a 	bl	3fbc <_ZN7Pokitto4Core7getTimeEv>
     ae8:	b283      	uxth	r3, r0
     aea:	9304      	str	r3, [sp, #16]
/home/manga/Projects/Pokitto/PyInSky/builds/1/PokittoLib/POKITTO_CORE/PokittoCore.cpp:505
            if (countd<0xFFFF) countd--;
     aec:	4b7a      	ldr	r3, [pc, #488]	; (cd8 <_ZN7Pokitto4Core11setVolLimitEv+0x2a8>)
     aee:	18e3      	adds	r3, r4, r3
     af0:	1e5a      	subs	r2, r3, #1
     af2:	4193      	sbcs	r3, r2
     af4:	1ae4      	subs	r4, r4, r3
/home/manga/Projects/Pokitto/PyInSky/builds/1/PokittoLib/POKITTO_CORE/PokittoCore.cpp:507
        switch (dstate) {
     af6:	2d01      	cmp	r5, #1
     af8:	d03c      	beq.n	b74 <_ZN7Pokitto4Core11setVolLimitEv+0x144>
     afa:	2d02      	cmp	r5, #2
     afc:	d1e2      	bne.n	ac4 <_ZN7Pokitto4Core11setVolLimitEv+0x94>
/home/manga/Projects/Pokitto/PyInSky/builds/1/PokittoLib/POKITTO_CORE/PokittoCore.cpp:562
            buttons.pollButtons();
     afe:	f7ff fbb3 	bl	268 <_ZN7Pokitto7Buttons11pollButtonsEv>
/home/manga/Projects/Pokitto/PyInSky/builds/1/PokittoLib/POKITTO_CORE/PokittoCore.cpp:564
            buttons.update();
     b02:	f7ff fb71 	bl	1e8 <_ZN7Pokitto7Buttons6updateEv>
/home/manga/Projects/Pokitto/PyInSky/builds/1/PokittoLib/POKITTO_CORE/PokittoCore.cpp:565
            if (aBtn()) {dstate=0;break;}
     b06:	f002 fd3f 	bl	3588 <_ZN7Pokitto4Core4aBtnEv>
     b0a:	9005      	str	r0, [sp, #20]
     b0c:	2800      	cmp	r0, #0
     b0e:	d10e      	bne.n	b2e <_ZN7Pokitto4Core11setVolLimitEv+0xfe>
/home/manga/Projects/Pokitto/PyInSky/builds/1/PokittoLib/POKITTO_CORE/PokittoCore.cpp:566
            if (buttons.pressed(BTN_RIGHT)) {
     b10:	2002      	movs	r0, #2
     b12:	f7ff fb8b 	bl	22c <_ZN7Pokitto7Buttons7pressedEh>
     b16:	1e06      	subs	r6, r0, #0
     b18:	d100      	bne.n	b1c <_ZN7Pokitto4Core11setVolLimitEv+0xec>
     b1a:	e0c3      	b.n	ca4 <_ZN7Pokitto4Core11setVolLimitEv+0x274>
/home/manga/Projects/Pokitto/PyInSky/builds/1/PokittoLib/POKITTO_CORE/PokittoCore.cpp:576
                    sound.volumeUp();
     b1c:	f002 fb44 	bl	31a8 <_ZN7Pokitto5Sound8volumeUpEv>
/home/manga/Projects/Pokitto/PyInSky/builds/1/PokittoLib/POKITTO_CORE/PokittoCore.cpp:577
                    dstate=1; wipe=false;
     b20:	9b05      	ldr	r3, [sp, #20]
/home/manga/Projects/Pokitto/PyInSky/builds/1/PokittoLib/POKITTO_CORE/PokittoCore.cpp:567
                    countd=0xFFFF; //disable countdown
     b22:	4c6b      	ldr	r4, [pc, #428]	; (cd0 <_ZN7Pokitto4Core11setVolLimitEv+0x2a0>)
/home/manga/Projects/Pokitto/PyInSky/builds/1/PokittoLib/POKITTO_CORE/PokittoCore.cpp:577
                    dstate=1; wipe=false;
     b24:	9303      	str	r3, [sp, #12]
/home/manga/Projects/Pokitto/PyInSky/builds/1/PokittoLib/POKITTO_CORE/PokittoCore.cpp:588
                    dstate=1; wipe=false;
     b26:	2501      	movs	r5, #1
/home/manga/Projects/Pokitto/PyInSky/builds/1/PokittoLib/POKITTO_CORE/PokittoCore.cpp:589
                    break;
     b28:	e7cc      	b.n	ac4 <_ZN7Pokitto4Core11setVolLimitEv+0x94>
/home/manga/Projects/Pokitto/PyInSky/builds/1/PokittoLib/POKITTO_CORE/PokittoCore.cpp:479
    else sound.setMaxVol(VOLUME_HEADPHONE_MAX);
     b2a:	207f      	movs	r0, #127	; 0x7f
     b2c:	e79a      	b.n	a64 <_ZN7Pokitto4Core11setVolLimitEv+0x34>
/home/manga/Projects/Pokitto/PyInSky/builds/1/PokittoLib/POKITTO_CORE/PokittoCore.cpp:565
            if (aBtn()) {dstate=0;break;}
     b2e:	2500      	movs	r5, #0
     b30:	e7c8      	b.n	ac4 <_ZN7Pokitto4Core11setVolLimitEv+0x94>
/home/manga/Projects/Pokitto/PyInSky/builds/1/PokittoLib/POKITTO_CORE/PokittoCore.cpp:594
    vol = sound.getVolume();
     b32:	f002 fb7d 	bl	3230 <_ZN7Pokitto5Sound9getVolumeEv>
     b36:	0004      	movs	r4, r0
/home/manga/Projects/Pokitto/PyInSky/builds/1/PokittoLib/POKITTO_CORE/PokittoCore.cpp:596
    if (vol != eeprom_read_byte((uint16_t*)EESETTINGS_VOL)) eeprom_write_byte((uint16_t*)EESETTINGS_VOL,(uint8_t)vol);
     b38:	20fa      	movs	r0, #250	; 0xfa
     b3a:	0100      	lsls	r0, r0, #4
     b3c:	f003 fd02 	bl	4544 <_Z16eeprom_read_bytePt>
     b40:	f023 fa7a 	bl	24038 <__aeabi_i2f>
     b44:	1c05      	adds	r5, r0, #0
/home/manga/Projects/Pokitto/PyInSky/builds/1/PokittoLib/POKITTO_CORE/PokittoCore.cpp:594
    vol = sound.getVolume();
     b46:	0020      	movs	r0, r4
     b48:	f023 fac0 	bl	240cc <__aeabi_ui2f>
     b4c:	1c01      	adds	r1, r0, #0
/home/manga/Projects/Pokitto/PyInSky/builds/1/PokittoLib/POKITTO_CORE/PokittoCore.cpp:596
    if (vol != eeprom_read_byte((uint16_t*)EESETTINGS_VOL)) eeprom_write_byte((uint16_t*)EESETTINGS_VOL,(uint8_t)vol);
     b4e:	1c28      	adds	r0, r5, #0
     b50:	f022 fa98 	bl	23084 <__aeabi_fcmpeq>
     b54:	2800      	cmp	r0, #0
     b56:	d104      	bne.n	b62 <_ZN7Pokitto4Core11setVolLimitEv+0x132>
/home/manga/Projects/Pokitto/PyInSky/builds/1/PokittoLib/POKITTO_CORE/PokittoCore.cpp:596 (discriminator 1)
     b58:	20fa      	movs	r0, #250	; 0xfa
     b5a:	b2e1      	uxtb	r1, r4
     b5c:	0100      	lsls	r0, r0, #4
     b5e:	f003 fcfa 	bl	4556 <_Z17eeprom_write_bytePth>
/home/manga/Projects/Pokitto/PyInSky/builds/1/PokittoLib/POKITTO_CORE/PokittoCore.cpp:598
    sound.setVolume(vol);
     b62:	b220      	sxth	r0, r4
     b64:	f002 fb08 	bl	3178 <_ZN7Pokitto5Sound9setVolumeEs>
/home/manga/Projects/Pokitto/PyInSky/builds/1/PokittoLib/POKITTO_CORE/PokittoCore.cpp:600
    display.setCursor(0,0);
     b68:	2100      	movs	r1, #0
     b6a:	0008      	movs	r0, r1
     b6c:	f000 fba6 	bl	12bc <_ZN7Pokitto7Display9setCursorEss>
/home/manga/Projects/Pokitto/PyInSky/builds/1/PokittoLib/POKITTO_CORE/PokittoCore.cpp:601
}
     b70:	b007      	add	sp, #28
     b72:	bdf0      	pop	{r4, r5, r6, r7, pc}
/home/manga/Projects/Pokitto/PyInSky/builds/1/PokittoLib/POKITTO_CORE/PokittoCore.cpp:510
            if (wipe) {
     b74:	9b03      	ldr	r3, [sp, #12]
     b76:	4d59      	ldr	r5, [pc, #356]	; (cdc <_ZN7Pokitto4Core11setVolLimitEv+0x2ac>)
     b78:	2b00      	cmp	r3, #0
     b7a:	d032      	beq.n	be2 <_ZN7Pokitto4Core11setVolLimitEv+0x1b2>
/home/manga/Projects/Pokitto/PyInSky/builds/1/PokittoLib/POKITTO_CORE/PokittoCore.cpp:512
            display.directcolor = COLOR_WHITE;
     b7c:	2601      	movs	r6, #1
/home/manga/Projects/Pokitto/PyInSky/builds/1/PokittoLib/POKITTO_CORE/PokittoCore.cpp:511
            display.clearLCD();
     b7e:	f000 fb6d 	bl	125c <_ZN7Pokitto7Display8clearLCDEv>
/home/manga/Projects/Pokitto/PyInSky/builds/1/PokittoLib/POKITTO_CORE/PokittoCore.cpp:512
            display.directcolor = COLOR_WHITE;
     b82:	4276      	negs	r6, r6
/home/manga/Projects/Pokitto/PyInSky/builds/1/PokittoLib/POKITTO_CORE/PokittoCore.cpp:513
            display.setCursor(4*8,2*8);
     b84:	2110      	movs	r1, #16
     b86:	2020      	movs	r0, #32
/home/manga/Projects/Pokitto/PyInSky/builds/1/PokittoLib/POKITTO_CORE/PokittoCore.cpp:512
            display.directcolor = COLOR_WHITE;
     b88:	802e      	strh	r6, [r5, #0]
/home/manga/Projects/Pokitto/PyInSky/builds/1/PokittoLib/POKITTO_CORE/PokittoCore.cpp:513
            display.setCursor(4*8,2*8);
     b8a:	f000 fb97 	bl	12bc <_ZN7Pokitto7Display9setCursorEss>
/home/manga/Projects/Pokitto/PyInSky/builds/1/PokittoLib/POKITTO_CORE/PokittoCore.cpp:514
            display.print("SELECT VOLUME LIMIT");
     b8e:	4854      	ldr	r0, [pc, #336]	; (ce0 <_ZN7Pokitto4Core11setVolLimitEv+0x2b0>)
     b90:	f001 fdd2 	bl	2738 <_ZN7Pokitto7Display5printEPKc>
/home/manga/Projects/Pokitto/PyInSky/builds/1/PokittoLib/POKITTO_CORE/PokittoCore.cpp:515
            display.setCursor(5*8,17*9);
     b94:	2199      	movs	r1, #153	; 0x99
     b96:	2028      	movs	r0, #40	; 0x28
     b98:	f000 fb90 	bl	12bc <_ZN7Pokitto7Display9setCursorEss>
/home/manga/Projects/Pokitto/PyInSky/builds/1/PokittoLib/POKITTO_CORE/PokittoCore.cpp:516
            display.print("PRESS ");
     b9c:	4851      	ldr	r0, [pc, #324]	; (ce4 <_ZN7Pokitto4Core11setVolLimitEv+0x2b4>)
     b9e:	f001 fdcb 	bl	2738 <_ZN7Pokitto7Display5printEPKc>
/home/manga/Projects/Pokitto/PyInSky/builds/1/PokittoLib/POKITTO_CORE/PokittoCore.cpp:518
            display.print("A");
     ba2:	4851      	ldr	r0, [pc, #324]	; (ce8 <_ZN7Pokitto4Core11setVolLimitEv+0x2b8>)
/home/manga/Projects/Pokitto/PyInSky/builds/1/PokittoLib/POKITTO_CORE/PokittoCore.cpp:517
            display.directcolor = COLOR_GREEN;
     ba4:	802f      	strh	r7, [r5, #0]
/home/manga/Projects/Pokitto/PyInSky/builds/1/PokittoLib/POKITTO_CORE/PokittoCore.cpp:518
            display.print("A");
     ba6:	f001 fdc7 	bl	2738 <_ZN7Pokitto7Display5printEPKc>
/home/manga/Projects/Pokitto/PyInSky/builds/1/PokittoLib/POKITTO_CORE/PokittoCore.cpp:520
            display.print(" TO ACCEPT");
     baa:	4850      	ldr	r0, [pc, #320]	; (cec <_ZN7Pokitto4Core11setVolLimitEv+0x2bc>)
/home/manga/Projects/Pokitto/PyInSky/builds/1/PokittoLib/POKITTO_CORE/PokittoCore.cpp:519
            display.directcolor = COLOR_WHITE;
     bac:	802e      	strh	r6, [r5, #0]
/home/manga/Projects/Pokitto/PyInSky/builds/1/PokittoLib/POKITTO_CORE/PokittoCore.cpp:520
            display.print(" TO ACCEPT");
     bae:	f001 fdc3 	bl	2738 <_ZN7Pokitto7Display5printEPKc>
/home/manga/Projects/Pokitto/PyInSky/builds/1/PokittoLib/POKITTO_CORE/PokittoCore.cpp:523
            display.setCursor(0,11*8);
     bb2:	2158      	movs	r1, #88	; 0x58
     bb4:	2000      	movs	r0, #0
/home/manga/Projects/Pokitto/PyInSky/builds/1/PokittoLib/POKITTO_CORE/PokittoCore.cpp:521
            display.directcolor = COLOR_GREEN;
     bb6:	802f      	strh	r7, [r5, #0]
/home/manga/Projects/Pokitto/PyInSky/builds/1/PokittoLib/POKITTO_CORE/PokittoCore.cpp:523
            display.setCursor(0,11*8);
     bb8:	f000 fb80 	bl	12bc <_ZN7Pokitto7Display9setCursorEss>
/home/manga/Projects/Pokitto/PyInSky/builds/1/PokittoLib/POKITTO_CORE/PokittoCore.cpp:524
            display.println(" abbbbbbbbbbbbbbbbbbbbbbbc");
     bbc:	484c      	ldr	r0, [pc, #304]	; (cf0 <_ZN7Pokitto4Core11setVolLimitEv+0x2c0>)
     bbe:	f001 fdc7 	bl	2750 <_ZN7Pokitto7Display7printlnEPKc>
/home/manga/Projects/Pokitto/PyInSky/builds/1/PokittoLib/POKITTO_CORE/PokittoCore.cpp:525
            display.println(" |                       |");
     bc2:	4e4c      	ldr	r6, [pc, #304]	; (cf4 <_ZN7Pokitto4Core11setVolLimitEv+0x2c4>)
     bc4:	0030      	movs	r0, r6
     bc6:	f001 fdc3 	bl	2750 <_ZN7Pokitto7Display7printlnEPKc>
/home/manga/Projects/Pokitto/PyInSky/builds/1/PokittoLib/POKITTO_CORE/PokittoCore.cpp:526
            display.println(" |                       |");
     bca:	0030      	movs	r0, r6
     bcc:	f001 fdc0 	bl	2750 <_ZN7Pokitto7Display7printlnEPKc>
/home/manga/Projects/Pokitto/PyInSky/builds/1/PokittoLib/POKITTO_CORE/PokittoCore.cpp:527
            display.println(" |                       |");
     bd0:	0030      	movs	r0, r6
     bd2:	f001 fdbd 	bl	2750 <_ZN7Pokitto7Display7printlnEPKc>
/home/manga/Projects/Pokitto/PyInSky/builds/1/PokittoLib/POKITTO_CORE/PokittoCore.cpp:528
            display.println(" |                       |");
     bd6:	0030      	movs	r0, r6
     bd8:	f001 fdba 	bl	2750 <_ZN7Pokitto7Display7printlnEPKc>
/home/manga/Projects/Pokitto/PyInSky/builds/1/PokittoLib/POKITTO_CORE/PokittoCore.cpp:529
            display.println(" dbbbbbbbbbbbbbbbbbbbbbbbe");
     bdc:	4846      	ldr	r0, [pc, #280]	; (cf8 <_ZN7Pokitto4Core11setVolLimitEv+0x2c8>)
     bde:	f001 fdb7 	bl	2750 <_ZN7Pokitto7Display7printlnEPKc>
/home/manga/Projects/Pokitto/PyInSky/builds/1/PokittoLib/POKITTO_CORE/PokittoCore.cpp:531
            display.setCursor(6*8,17*9);
     be2:	2199      	movs	r1, #153	; 0x99
     be4:	2030      	movs	r0, #48	; 0x30
     be6:	f000 fb69 	bl	12bc <_ZN7Pokitto7Display9setCursorEss>
/home/manga/Projects/Pokitto/PyInSky/builds/1/PokittoLib/POKITTO_CORE/PokittoCore.cpp:532
            if (discrete_vol<4) display.directcolor = COLOR_WHITE;
     bea:	4e36      	ldr	r6, [pc, #216]	; (cc4 <_ZN7Pokitto4Core11setVolLimitEv+0x294>)
     bec:	7833      	ldrb	r3, [r6, #0]
     bee:	2b03      	cmp	r3, #3
     bf0:	d84f      	bhi.n	c92 <_ZN7Pokitto4Core11setVolLimitEv+0x262>
/home/manga/Projects/Pokitto/PyInSky/builds/1/PokittoLib/POKITTO_CORE/PokittoCore.cpp:532 (discriminator 1)
     bf2:	2301      	movs	r3, #1
     bf4:	425b      	negs	r3, r3
/home/manga/Projects/Pokitto/PyInSky/builds/1/PokittoLib/POKITTO_CORE/PokittoCore.cpp:533
            else display.directcolor = COLOR_RED;
     bf6:	802b      	strh	r3, [r5, #0]
/home/manga/Projects/Pokitto/PyInSky/builds/1/PokittoLib/POKITTO_CORE/PokittoCore.cpp:534
            display.directBitmap(21*8-4,6*8,Pokitto_headphones,1,2);
     bf8:	2302      	movs	r3, #2
     bfa:	4a40      	ldr	r2, [pc, #256]	; (cfc <_ZN7Pokitto4Core11setVolLimitEv+0x2cc>)
     bfc:	9300      	str	r3, [sp, #0]
     bfe:	2130      	movs	r1, #48	; 0x30
     c00:	3b01      	subs	r3, #1
     c02:	20a4      	movs	r0, #164	; 0xa4
     c04:	f000 fb64 	bl	12d0 <_ZN7Pokitto7Display12directBitmapEssPKhhh>
/home/manga/Projects/Pokitto/PyInSky/builds/1/PokittoLib/POKITTO_CORE/PokittoCore.cpp:535
            display.setCursor(3*8,6*8+6);
     c08:	2136      	movs	r1, #54	; 0x36
     c0a:	2018      	movs	r0, #24
     c0c:	f000 fb56 	bl	12bc <_ZN7Pokitto7Display9setCursorEss>
/home/manga/Projects/Pokitto/PyInSky/builds/1/PokittoLib/POKITTO_CORE/PokittoCore.cpp:536
            display.print("HEADPHONES");
     c10:	483b      	ldr	r0, [pc, #236]	; (d00 <_ZN7Pokitto4Core11setVolLimitEv+0x2d0>)
     c12:	f001 fd91 	bl	2738 <_ZN7Pokitto7Display5printEPKc>
/home/manga/Projects/Pokitto/PyInSky/builds/1/PokittoLib/POKITTO_CORE/PokittoCore.cpp:537
            display.setCursor(3*8,8*8+2);
     c16:	2018      	movs	r0, #24
     c18:	2142      	movs	r1, #66	; 0x42
     c1a:	f000 fb4f 	bl	12bc <_ZN7Pokitto7Display9setCursorEss>
/home/manga/Projects/Pokitto/PyInSky/builds/1/PokittoLib/POKITTO_CORE/PokittoCore.cpp:538
            if (discrete_vol>3) display.print("TOO LOUD!");
     c1e:	7833      	ldrb	r3, [r6, #0]
     c20:	4838      	ldr	r0, [pc, #224]	; (d04 <_ZN7Pokitto4Core11setVolLimitEv+0x2d4>)
     c22:	2b03      	cmp	r3, #3
     c24:	d800      	bhi.n	c28 <_ZN7Pokitto4Core11setVolLimitEv+0x1f8>
/home/manga/Projects/Pokitto/PyInSky/builds/1/PokittoLib/POKITTO_CORE/PokittoCore.cpp:539
            else display.print("OK        ");
     c26:	4838      	ldr	r0, [pc, #224]	; (d08 <_ZN7Pokitto4Core11setVolLimitEv+0x2d8>)
     c28:	f001 fd86 	bl	2738 <_ZN7Pokitto7Display5printEPKc>
/home/manga/Projects/Pokitto/PyInSky/builds/1/PokittoLib/POKITTO_CORE/PokittoCore.cpp:541
            display.directBitmap(21*8-4,12*8,Pokitto_speaker,1,2);
     c2c:	2302      	movs	r3, #2
     c2e:	4a37      	ldr	r2, [pc, #220]	; (d0c <_ZN7Pokitto4Core11setVolLimitEv+0x2dc>)
/home/manga/Projects/Pokitto/PyInSky/builds/1/PokittoLib/POKITTO_CORE/PokittoCore.cpp:540
            display.directcolor = COLOR_GREEN;
     c30:	802f      	strh	r7, [r5, #0]
/home/manga/Projects/Pokitto/PyInSky/builds/1/PokittoLib/POKITTO_CORE/PokittoCore.cpp:541
            display.directBitmap(21*8-4,12*8,Pokitto_speaker,1,2);
     c32:	2160      	movs	r1, #96	; 0x60
     c34:	9300      	str	r3, [sp, #0]
     c36:	20a4      	movs	r0, #164	; 0xa4
     c38:	3b01      	subs	r3, #1
     c3a:	f000 fb49 	bl	12d0 <_ZN7Pokitto7Display12directBitmapEssPKhhh>
/home/manga/Projects/Pokitto/PyInSky/builds/1/PokittoLib/POKITTO_CORE/PokittoCore.cpp:542
            display.setCursor(3*8,12*8+6);
     c3e:	2166      	movs	r1, #102	; 0x66
     c40:	2018      	movs	r0, #24
     c42:	f000 fb3b 	bl	12bc <_ZN7Pokitto7Display9setCursorEss>
/home/manga/Projects/Pokitto/PyInSky/builds/1/PokittoLib/POKITTO_CORE/PokittoCore.cpp:543
            display.print("VOLUME MAX");
     c46:	4832      	ldr	r0, [pc, #200]	; (d10 <_ZN7Pokitto4Core11setVolLimitEv+0x2e0>)
     c48:	f001 fd76 	bl	2738 <_ZN7Pokitto7Display5printEPKc>
/home/manga/Projects/Pokitto/PyInSky/builds/1/PokittoLib/POKITTO_CORE/PokittoCore.cpp:544
            display.setCursor(3*8,14*8+2);
     c4c:	2172      	movs	r1, #114	; 0x72
     c4e:	2018      	movs	r0, #24
     c50:	f000 fb34 	bl	12bc <_ZN7Pokitto7Display9setCursorEss>
/home/manga/Projects/Pokitto/PyInSky/builds/1/PokittoLib/POKITTO_CORE/PokittoCore.cpp:548
            if ((sound.getVolume()>>5)>3) { display.directcolor=COLOR_RED;}
     c54:	f002 faec 	bl	3230 <_ZN7Pokitto5Sound9getVolumeEv>
     c58:	287f      	cmp	r0, #127	; 0x7f
     c5a:	dd1c      	ble.n	c96 <_ZN7Pokitto4Core11setVolLimitEv+0x266>
/home/manga/Projects/Pokitto/PyInSky/builds/1/PokittoLib/POKITTO_CORE/PokittoCore.cpp:548 (discriminator 1)
     c5c:	4b2d      	ldr	r3, [pc, #180]	; (d14 <_ZN7Pokitto4Core11setVolLimitEv+0x2e4>)
     c5e:	802b      	strh	r3, [r5, #0]
/home/manga/Projects/Pokitto/PyInSky/builds/1/PokittoLib/POKITTO_CORE/PokittoCore.cpp:550
            if (discrete_vol==4) display.directcolor=COLOR_YELLOW;
     c60:	4b18      	ldr	r3, [pc, #96]	; (cc4 <_ZN7Pokitto4Core11setVolLimitEv+0x294>)
     c62:	4d1e      	ldr	r5, [pc, #120]	; (cdc <_ZN7Pokitto4Core11setVolLimitEv+0x2ac>)
     c64:	781a      	ldrb	r2, [r3, #0]
     c66:	2a04      	cmp	r2, #4
     c68:	d117      	bne.n	c9a <_ZN7Pokitto4Core11setVolLimitEv+0x26a>
/home/manga/Projects/Pokitto/PyInSky/builds/1/PokittoLib/POKITTO_CORE/PokittoCore.cpp:550 (discriminator 1)
     c6a:	3a24      	subs	r2, #36	; 0x24
     c6c:	802a      	strh	r2, [r5, #0]
/home/manga/Projects/Pokitto/PyInSky/builds/1/PokittoLib/POKITTO_CORE/PokittoCore.cpp:552
            display.print((int)discrete_vol);
     c6e:	7818      	ldrb	r0, [r3, #0]
     c70:	210a      	movs	r1, #10
     c72:	f001 fdda 	bl	282a <_ZN7Pokitto7Display5printEii>
/home/manga/Projects/Pokitto/PyInSky/builds/1/PokittoLib/POKITTO_CORE/PokittoCore.cpp:554
            display.print("  ");
     c76:	4828      	ldr	r0, [pc, #160]	; (d18 <_ZN7Pokitto4Core11setVolLimitEv+0x2e8>)
     c78:	f001 fd5e 	bl	2738 <_ZN7Pokitto7Display5printEPKc>
/home/manga/Projects/Pokitto/PyInSky/builds/1/PokittoLib/POKITTO_CORE/PokittoCore.cpp:555
            display.directcolor=COLOR_GREEN;
     c7c:	802f      	strh	r7, [r5, #0]
/home/manga/Projects/Pokitto/PyInSky/builds/1/PokittoLib/POKITTO_CORE/PokittoCore.cpp:556
            drawvolbar(14*8,14*8+4+3,sound.getVolume(),false);
     c7e:	f002 fad7 	bl	3230 <_ZN7Pokitto5Sound9getVolumeEv>
     c82:	2300      	movs	r3, #0
     c84:	0002      	movs	r2, r0
     c86:	2177      	movs	r1, #119	; 0x77
     c88:	2070      	movs	r0, #112	; 0x70
     c8a:	f7ff fd93 	bl	7b4 <_ZN7Pokitto4Core10drawvolbarEiiib>
/home/manga/Projects/Pokitto/PyInSky/builds/1/PokittoLib/POKITTO_CORE/PokittoCore.cpp:559
            dstate=2; break;
     c8e:	2502      	movs	r5, #2
     c90:	e718      	b.n	ac4 <_ZN7Pokitto4Core11setVolLimitEv+0x94>
/home/manga/Projects/Pokitto/PyInSky/builds/1/PokittoLib/POKITTO_CORE/PokittoCore.cpp:533
            else display.directcolor = COLOR_RED;
     c92:	4b20      	ldr	r3, [pc, #128]	; (d14 <_ZN7Pokitto4Core11setVolLimitEv+0x2e4>)
     c94:	e7af      	b.n	bf6 <_ZN7Pokitto4Core11setVolLimitEv+0x1c6>
/home/manga/Projects/Pokitto/PyInSky/builds/1/PokittoLib/POKITTO_CORE/PokittoCore.cpp:549
            else display.directcolor=COLOR_GREEN;
     c96:	802f      	strh	r7, [r5, #0]
     c98:	e7e2      	b.n	c60 <_ZN7Pokitto4Core11setVolLimitEv+0x230>
/home/manga/Projects/Pokitto/PyInSky/builds/1/PokittoLib/POKITTO_CORE/PokittoCore.cpp:551
            if (discrete_vol==7) discrete_vol=6;
     c9a:	2a07      	cmp	r2, #7
     c9c:	d1e7      	bne.n	c6e <_ZN7Pokitto4Core11setVolLimitEv+0x23e>
/home/manga/Projects/Pokitto/PyInSky/builds/1/PokittoLib/POKITTO_CORE/PokittoCore.cpp:551 (discriminator 1)
     c9e:	3a01      	subs	r2, #1
     ca0:	701a      	strb	r2, [r3, #0]
     ca2:	e7e4      	b.n	c6e <_ZN7Pokitto4Core11setVolLimitEv+0x23e>
/home/manga/Projects/Pokitto/PyInSky/builds/1/PokittoLib/POKITTO_CORE/PokittoCore.cpp:580
            if (buttons.pressed(BTN_LEFT)) {
     ca4:	f7ff fac2 	bl	22c <_ZN7Pokitto7Buttons7pressedEh>
     ca8:	2800      	cmp	r0, #0
     caa:	d100      	bne.n	cae <_ZN7Pokitto4Core11setVolLimitEv+0x27e>
     cac:	e70a      	b.n	ac4 <_ZN7Pokitto4Core11setVolLimitEv+0x94>
/home/manga/Projects/Pokitto/PyInSky/builds/1/PokittoLib/POKITTO_CORE/PokittoCore.cpp:587
                    sound.volumeDown();
     cae:	f002 fa95 	bl	31dc <_ZN7Pokitto5Sound10volumeDownEv>
/home/manga/Projects/Pokitto/PyInSky/builds/1/PokittoLib/POKITTO_CORE/PokittoCore.cpp:581
                    countd=0xFFFF; //disable countdown
     cb2:	4c07      	ldr	r4, [pc, #28]	; (cd0 <_ZN7Pokitto4Core11setVolLimitEv+0x2a0>)
/home/manga/Projects/Pokitto/PyInSky/builds/1/PokittoLib/POKITTO_CORE/PokittoCore.cpp:588
                    dstate=1; wipe=false;
     cb4:	9603      	str	r6, [sp, #12]
     cb6:	e736      	b.n	b26 <_ZN7Pokitto4Core11setVolLimitEv+0xf6>
     cb8:	10000108 	.word	0x10000108
     cbc:	10001874 	.word	0x10001874
     cc0:	42fe0000 	.word	0x42fe0000
     cc4:	10001848 	.word	0x10001848
     cc8:	100001f9 	.word	0x100001f9
     ccc:	00000fa3 	.word	0x00000fa3
     cd0:	0000ffff 	.word	0x0000ffff
     cd4:	10000208 	.word	0x10000208
     cd8:	ffff0001 	.word	0xffff0001
     cdc:	10000106 	.word	0x10000106
     ce0:	0002562e 	.word	0x0002562e
     ce4:	0002576d 	.word	0x0002576d
     ce8:	00025642 	.word	0x00025642
     cec:	00025644 	.word	0x00025644
     cf0:	0002564f 	.word	0x0002564f
     cf4:	0002566a 	.word	0x0002566a
     cf8:	00025685 	.word	0x00025685
     cfc:	0002591c 	.word	0x0002591c
     d00:	00025728 	.word	0x00025728
     d04:	000256a0 	.word	0x000256a0
     d08:	000256aa 	.word	0x000256aa
     d0c:	00025e48 	.word	0x00025e48
     d10:	000256b5 	.word	0x000256b5
     d14:	fffff800 	.word	0xfffff800
     d18:	000256b2 	.word	0x000256b2

00000d1c <_ZN7Pokitto4Core4initEv>:
_ZN7Pokitto4Core4initEv():
/home/manga/Projects/Pokitto/PyInSky/builds/1/PokittoLib/POKITTO_CORE/PokittoCore.cpp:702
    run_state = true;
     d1c:	2201      	movs	r2, #1
/home/manga/Projects/Pokitto/PyInSky/builds/1/PokittoLib/POKITTO_CORE/PokittoCore.cpp:701
void Core::init() {
     d1e:	b510      	push	{r4, lr}
/home/manga/Projects/Pokitto/PyInSky/builds/1/PokittoLib/POKITTO_CORE/PokittoCore.cpp:702
    run_state = true;
     d20:	4b08      	ldr	r3, [pc, #32]	; (d44 <_ZN7Pokitto4Core4initEv+0x28>)
/home/manga/Projects/Pokitto/PyInSky/builds/1/PokittoLib/POKITTO_CORE/PokittoCore.cpp:703
    display.enableDirectPrinting(false);
     d22:	2000      	movs	r0, #0
/home/manga/Projects/Pokitto/PyInSky/builds/1/PokittoLib/POKITTO_CORE/PokittoCore.cpp:702
    run_state = true;
     d24:	701a      	strb	r2, [r3, #0]
/home/manga/Projects/Pokitto/PyInSky/builds/1/PokittoLib/POKITTO_CORE/PokittoCore.cpp:703
    display.enableDirectPrinting(false);
     d26:	f001 fc5b 	bl	25e0 <_ZN7Pokitto7Display20enableDirectPrintingEh>
/home/manga/Projects/Pokitto/PyInSky/builds/1/PokittoLib/POKITTO_CORE/PokittoCore.cpp:704
    display.setFont(DEFAULT_FONT);
     d2a:	4807      	ldr	r0, [pc, #28]	; (d48 <_ZN7Pokitto4Core4initEv+0x2c>)
     d2c:	f001 f900 	bl	1f30 <_ZN7Pokitto7Display7setFontEPKh>
/home/manga/Projects/Pokitto/PyInSky/builds/1/PokittoLib/POKITTO_CORE/PokittoCore.cpp:705
    initClock();
     d30:	f003 f934 	bl	3f9c <_ZN7Pokitto4Core9initClockEv>
/home/manga/Projects/Pokitto/PyInSky/builds/1/PokittoLib/POKITTO_CORE/PokittoCore.cpp:706
    initGPIO();
     d34:	f003 f958 	bl	3fe8 <_ZN7Pokitto4Core8initGPIOEv>
_ZN7Pokitto4Core11initButtonsEv():
/home/manga/Projects/Pokitto/PyInSky/builds/1/PokittoLib/POKITTO_CORE/PokittoCore.cpp:727
    Pokitto::initButtons();
     d38:	f002 fb90 	bl	345c <_ZN7Pokitto11initButtonsEv>
_ZN7Pokitto4Core4initEv():
/home/manga/Projects/Pokitto/PyInSky/builds/1/PokittoLib/POKITTO_CORE/PokittoCore.cpp:708
    initRandom();
     d3c:	f003 f944 	bl	3fc8 <_ZN7Pokitto4Core10initRandomEv>
/home/manga/Projects/Pokitto/PyInSky/builds/1/PokittoLib/POKITTO_CORE/PokittoCore.cpp:711
}
     d40:	bd10      	pop	{r4, pc}
     d42:	46c0      	nop			; (mov r8, r8)
     d44:	10000208 	.word	0x10000208
     d48:	00024af8 	.word	0x00024af8

00000d4c <_ZN7Pokitto4Core9isRunningEv>:
_ZN7Pokitto4Core9isRunningEv():
/home/manga/Projects/Pokitto/PyInSky/builds/1/PokittoLib/POKITTO_CORE/PokittoCore.cpp:735
    return run_state;
     d4c:	4b01      	ldr	r3, [pc, #4]	; (d54 <_ZN7Pokitto4Core9isRunningEv+0x8>)
     d4e:	7818      	ldrb	r0, [r3, #0]
/home/manga/Projects/Pokitto/PyInSky/builds/1/PokittoLib/POKITTO_CORE/PokittoCore.cpp:736
}
     d50:	4770      	bx	lr
     d52:	46c0      	nop			; (mov r8, r8)
     d54:	10000208 	.word	0x10000208

00000d58 <_ZN7Pokitto4Core8showLogoEv>:
_ZN7Pokitto4Core8showLogoEv():
/home/manga/Projects/Pokitto/PyInSky/builds/1/PokittoLib/POKITTO_CORE/PokittoCore.cpp:747
void Core::showLogo() {
     d58:	b5f7      	push	{r0, r1, r2, r4, r5, r6, r7, lr}
/home/manga/Projects/Pokitto/PyInSky/builds/1/PokittoLib/POKITTO_CORE/PokittoCore.cpp:750
    uint16_t i=0;
     d5a:	2400      	movs	r4, #0
/home/manga/Projects/Pokitto/PyInSky/builds/1/PokittoLib/POKITTO_CORE/PokittoCore.cpp:766
                display.directcolor = display.interpolateColor(sc, COLOR_GREEN, i);
     d5c:	26fc      	movs	r6, #252	; 0xfc
/home/manga/Projects/Pokitto/PyInSky/builds/1/PokittoLib/POKITTO_CORE/PokittoCore.cpp:749
    uint8_t state=0; //jump directly to logo, bypass teeth
     d5e:	0025      	movs	r5, r4
/home/manga/Projects/Pokitto/PyInSky/builds/1/PokittoLib/POKITTO_CORE/PokittoCore.cpp:767
                display.directBitmap(POK_LCD_W/2 - (*Pokitto_logo/2),POK_LCD_H/2-(*(Pokitto_logo+1)/2),Pokitto_logo,1,1);
     d60:	2758      	movs	r7, #88	; 0x58
/home/manga/Projects/Pokitto/PyInSky/builds/1/PokittoLib/POKITTO_CORE/PokittoCore.cpp:766
                display.directcolor = display.interpolateColor(sc, COLOR_GREEN, i);
     d62:	00f6      	lsls	r6, r6, #3
/home/manga/Projects/Pokitto/PyInSky/builds/1/PokittoLib/POKITTO_CORE/PokittoCore.cpp:752
    while (state < 255/6) {
     d64:	2d29      	cmp	r5, #41	; 0x29
     d66:	d811      	bhi.n	d8c <_ZN7Pokitto4Core8showLogoEv+0x34>
/home/manga/Projects/Pokitto/PyInSky/builds/1/PokittoLib/POKITTO_CORE/PokittoCore.cpp:753
    now=getTime();
     d68:	f003 f928 	bl	3fbc <_ZN7Pokitto4Core7getTimeEv>
/home/manga/Projects/Pokitto/PyInSky/builds/1/PokittoLib/POKITTO_CORE/PokittoCore.cpp:754
    if (now>refreshtime) {
     d6c:	4b23      	ldr	r3, [pc, #140]	; (dfc <_ZN7Pokitto4Core8showLogoEv+0xa4>)
     d6e:	681a      	ldr	r2, [r3, #0]
     d70:	4282      	cmp	r2, r0
     d72:	d2f7      	bcs.n	d64 <_ZN7Pokitto4Core8showLogoEv+0xc>
/home/manga/Projects/Pokitto/PyInSky/builds/1/PokittoLib/POKITTO_CORE/PokittoCore.cpp:755
            refreshtime=now+30;
     d74:	301e      	adds	r0, #30
     d76:	6018      	str	r0, [r3, #0]
/home/manga/Projects/Pokitto/PyInSky/builds/1/PokittoLib/POKITTO_CORE/PokittoCore.cpp:756
            switch (state) {
     d78:	2d01      	cmp	r5, #1
     d7a:	d00f      	beq.n	d9c <_ZN7Pokitto4Core8showLogoEv+0x44>
     d7c:	2d00      	cmp	r5, #0
     d7e:	d006      	beq.n	d8e <_ZN7Pokitto4Core8showLogoEv+0x36>
     d80:	2d02      	cmp	r5, #2
     d82:	d025      	beq.n	dd0 <_ZN7Pokitto4Core8showLogoEv+0x78>
/home/manga/Projects/Pokitto/PyInSky/builds/1/PokittoLib/POKITTO_CORE/PokittoCore.cpp:779
            if(buttons.aBtn()) state=255;
     d84:	f7ff fab6 	bl	2f4 <_ZN7Pokitto7Buttons4aBtnEv>
     d88:	2800      	cmp	r0, #0
     d8a:	d0eb      	beq.n	d64 <_ZN7Pokitto4Core8showLogoEv+0xc>
/home/manga/Projects/Pokitto/PyInSky/builds/1/PokittoLib/POKITTO_CORE/PokittoCore.cpp:782
}
     d8c:	bdf7      	pop	{r0, r1, r2, r4, r5, r6, r7, pc}
/home/manga/Projects/Pokitto/PyInSky/builds/1/PokittoLib/POKITTO_CORE/PokittoCore.cpp:759
                display.directbgcolor = COLOR_BLACK;
     d8e:	4b1c      	ldr	r3, [pc, #112]	; (e00 <_ZN7Pokitto4Core8showLogoEv+0xa8>)
/home/manga/Projects/Pokitto/PyInSky/builds/1/PokittoLib/POKITTO_CORE/PokittoCore.cpp:760
                display.fillLCD(display.directbgcolor);
     d90:	0028      	movs	r0, r5
/home/manga/Projects/Pokitto/PyInSky/builds/1/PokittoLib/POKITTO_CORE/PokittoCore.cpp:759
                display.directbgcolor = COLOR_BLACK;
     d92:	801d      	strh	r5, [r3, #0]
/home/manga/Projects/Pokitto/PyInSky/builds/1/PokittoLib/POKITTO_CORE/PokittoCore.cpp:760
                display.fillLCD(display.directbgcolor);
     d94:	f000 fa70 	bl	1278 <_ZN7Pokitto7Display7fillLCDEt>
/home/manga/Projects/Pokitto/PyInSky/builds/1/PokittoLib/POKITTO_CORE/PokittoCore.cpp:762
                state++;
     d98:	2501      	movs	r5, #1
/home/manga/Projects/Pokitto/PyInSky/builds/1/PokittoLib/POKITTO_CORE/PokittoCore.cpp:763
                break;
     d9a:	e7f3      	b.n	d84 <_ZN7Pokitto4Core8showLogoEv+0x2c>
/home/manga/Projects/Pokitto/PyInSky/builds/1/PokittoLib/POKITTO_CORE/PokittoCore.cpp:766
                display.directcolor = display.interpolateColor(sc, COLOR_GREEN, i);
     d9c:	b2e2      	uxtb	r2, r4
     d9e:	0031      	movs	r1, r6
     da0:	2000      	movs	r0, #0
     da2:	f001 ff05 	bl	2bb0 <_ZN7Pokitto7Display16interpolateColorEtth>
     da6:	4b17      	ldr	r3, [pc, #92]	; (e04 <_ZN7Pokitto4Core8showLogoEv+0xac>)
/home/manga/Projects/Pokitto/PyInSky/builds/1/PokittoLib/POKITTO_CORE/PokittoCore.cpp:767
                display.directBitmap(POK_LCD_W/2 - (*Pokitto_logo/2),POK_LCD_H/2-(*(Pokitto_logo+1)/2),Pokitto_logo,1,1);
     da8:	4a17      	ldr	r2, [pc, #92]	; (e08 <_ZN7Pokitto4Core8showLogoEv+0xb0>)
/home/manga/Projects/Pokitto/PyInSky/builds/1/PokittoLib/POKITTO_CORE/PokittoCore.cpp:766
                display.directcolor = display.interpolateColor(sc, COLOR_GREEN, i);
     daa:	8018      	strh	r0, [r3, #0]
/home/manga/Projects/Pokitto/PyInSky/builds/1/PokittoLib/POKITTO_CORE/PokittoCore.cpp:767
                display.directBitmap(POK_LCD_W/2 - (*Pokitto_logo/2),POK_LCD_H/2-(*(Pokitto_logo+1)/2),Pokitto_logo,1,1);
     dac:	236e      	movs	r3, #110	; 0x6e
     dae:	7851      	ldrb	r1, [r2, #1]
     db0:	7810      	ldrb	r0, [r2, #0]
     db2:	0849      	lsrs	r1, r1, #1
     db4:	0840      	lsrs	r0, r0, #1
/home/manga/Projects/Pokitto/PyInSky/builds/1/PokittoLib/POKITTO_CORE/PokittoCore.cpp:768
                i += 28;
     db6:	341c      	adds	r4, #28
/home/manga/Projects/Pokitto/PyInSky/builds/1/PokittoLib/POKITTO_CORE/PokittoCore.cpp:767
                display.directBitmap(POK_LCD_W/2 - (*Pokitto_logo/2),POK_LCD_H/2-(*(Pokitto_logo+1)/2),Pokitto_logo,1,1);
     db8:	1a18      	subs	r0, r3, r0
     dba:	1a79      	subs	r1, r7, r1
     dbc:	9500      	str	r5, [sp, #0]
     dbe:	002b      	movs	r3, r5
/home/manga/Projects/Pokitto/PyInSky/builds/1/PokittoLib/POKITTO_CORE/PokittoCore.cpp:768
                i += 28;
     dc0:	b2a4      	uxth	r4, r4
/home/manga/Projects/Pokitto/PyInSky/builds/1/PokittoLib/POKITTO_CORE/PokittoCore.cpp:767
                display.directBitmap(POK_LCD_W/2 - (*Pokitto_logo/2),POK_LCD_H/2-(*(Pokitto_logo+1)/2),Pokitto_logo,1,1);
     dc2:	f000 fa85 	bl	12d0 <_ZN7Pokitto7Display12directBitmapEssPKhhh>
/home/manga/Projects/Pokitto/PyInSky/builds/1/PokittoLib/POKITTO_CORE/PokittoCore.cpp:769
                if (i>=0xFF) { state++; i=0;}
     dc6:	2cfe      	cmp	r4, #254	; 0xfe
     dc8:	d9dc      	bls.n	d84 <_ZN7Pokitto4Core8showLogoEv+0x2c>
     dca:	2400      	movs	r4, #0
     dcc:	2502      	movs	r5, #2
     dce:	e7d9      	b.n	d84 <_ZN7Pokitto4Core8showLogoEv+0x2c>
/home/manga/Projects/Pokitto/PyInSky/builds/1/PokittoLib/POKITTO_CORE/PokittoCore.cpp:773
                display.directcolor = COLOR_GREEN;
     dd0:	4b0c      	ldr	r3, [pc, #48]	; (e04 <_ZN7Pokitto4Core8showLogoEv+0xac>)
/home/manga/Projects/Pokitto/PyInSky/builds/1/PokittoLib/POKITTO_CORE/PokittoCore.cpp:774
                display.directBitmap(POK_LCD_W/2 - (*Pokitto_logo/2),POK_LCD_H/2-(*(Pokitto_logo+1)/2),Pokitto_logo,1,1);
     dd2:	4a0d      	ldr	r2, [pc, #52]	; (e08 <_ZN7Pokitto4Core8showLogoEv+0xb0>)
/home/manga/Projects/Pokitto/PyInSky/builds/1/PokittoLib/POKITTO_CORE/PokittoCore.cpp:773
                display.directcolor = COLOR_GREEN;
     dd4:	801e      	strh	r6, [r3, #0]
/home/manga/Projects/Pokitto/PyInSky/builds/1/PokittoLib/POKITTO_CORE/PokittoCore.cpp:774
                display.directBitmap(POK_LCD_W/2 - (*Pokitto_logo/2),POK_LCD_H/2-(*(Pokitto_logo+1)/2),Pokitto_logo,1,1);
     dd6:	236e      	movs	r3, #110	; 0x6e
     dd8:	7810      	ldrb	r0, [r2, #0]
     dda:	7851      	ldrb	r1, [r2, #1]
     ddc:	0840      	lsrs	r0, r0, #1
     dde:	1a18      	subs	r0, r3, r0
     de0:	0849      	lsrs	r1, r1, #1
     de2:	3b6d      	subs	r3, #109	; 0x6d
     de4:	9300      	str	r3, [sp, #0]
     de6:	1a79      	subs	r1, r7, r1
     de8:	f000 fa72 	bl	12d0 <_ZN7Pokitto7Display12directBitmapEssPKhhh>
/home/manga/Projects/Pokitto/PyInSky/builds/1/PokittoLib/POKITTO_CORE/PokittoCore.cpp:775
                i+= 0x3F;
     dec:	343f      	adds	r4, #63	; 0x3f
/home/manga/Projects/Pokitto/PyInSky/builds/1/PokittoLib/POKITTO_CORE/PokittoCore.cpp:776
                if (i>0x3FF) state = 255;
     dee:	4b07      	ldr	r3, [pc, #28]	; (e0c <_ZN7Pokitto4Core8showLogoEv+0xb4>)
/home/manga/Projects/Pokitto/PyInSky/builds/1/PokittoLib/POKITTO_CORE/PokittoCore.cpp:775
                i+= 0x3F;
     df0:	b2a4      	uxth	r4, r4
/home/manga/Projects/Pokitto/PyInSky/builds/1/PokittoLib/POKITTO_CORE/PokittoCore.cpp:776
                if (i>0x3FF) state = 255;
     df2:	429c      	cmp	r4, r3
     df4:	d9c6      	bls.n	d84 <_ZN7Pokitto4Core8showLogoEv+0x2c>
     df6:	25ff      	movs	r5, #255	; 0xff
     df8:	e7c4      	b.n	d84 <_ZN7Pokitto4Core8showLogoEv+0x2c>
     dfa:	46c0      	nop			; (mov r8, r8)
     dfc:	10002420 	.word	0x10002420
     e00:	100015a2 	.word	0x100015a2
     e04:	10000106 	.word	0x10000106
     e08:	0002593e 	.word	0x0002593e
     e0c:	000003ff 	.word	0x000003ff

00000e10 <_ZN7Pokitto4Core12readSettingsEv>:
_ZN7Pokitto4Core12readSettingsEv():
/home/manga/Projects/Pokitto/PyInSky/builds/1/PokittoLib/POKITTO_CORE/PokittoCore.cpp:784
void Core::readSettings() {
     e10:	b510      	push	{r4, lr}
/home/manga/Projects/Pokitto/PyInSky/builds/1/PokittoLib/POKITTO_CORE/PokittoCore.cpp:792
		sound.setMaxVol(VOLUME_HEADPHONE_MAX);
     e12:	207f      	movs	r0, #127	; 0x7f
     e14:	f002 f9f8 	bl	3208 <_ZN7Pokitto5Sound9setMaxVolEs>
/home/manga/Projects/Pokitto/PyInSky/builds/1/PokittoLib/POKITTO_CORE/PokittoCore.cpp:793
		sound.globalVolume = VOLUME_STARTUP;
     e18:	227f      	movs	r2, #127	; 0x7f
     e1a:	4b03      	ldr	r3, [pc, #12]	; (e28 <_ZN7Pokitto4Core12readSettingsEv+0x18>)
     e1c:	801a      	strh	r2, [r3, #0]
/home/manga/Projects/Pokitto/PyInSky/builds/1/PokittoLib/POKITTO_CORE/PokittoCore.cpp:795
		startMenuTimer = START_MENU_TIMER;
     e1e:	4b03      	ldr	r3, [pc, #12]	; (e2c <_ZN7Pokitto4Core12readSettingsEv+0x1c>)
     e20:	3280      	adds	r2, #128	; 0x80
     e22:	701a      	strb	r2, [r3, #0]
/home/manga/Projects/Pokitto/PyInSky/builds/1/PokittoLib/POKITTO_CORE/PokittoCore.cpp:801
}
     e24:	bd10      	pop	{r4, pc}
     e26:	46c0      	nop			; (mov r8, r8)
     e28:	10001874 	.word	0x10001874
     e2c:	100001f8 	.word	0x100001f8

00000e30 <_ZN7Pokitto4Core5beginEv>:
_ZN7Pokitto4Core5beginEv():
/home/manga/Projects/Pokitto/PyInSky/builds/1/PokittoLib/POKITTO_CORE/PokittoCore.cpp:603
void Core::begin() {
     e30:	b5f7      	push	{r0, r1, r2, r4, r5, r6, r7, lr}
/home/manga/Projects/Pokitto/PyInSky/builds/1/PokittoLib/POKITTO_CORE/PokittoCore.cpp:605
    init(); // original functions
     e32:	f7ff ff73 	bl	d1c <_ZN7Pokitto4Core4initEv>
/home/manga/Projects/Pokitto/PyInSky/builds/1/PokittoLib/POKITTO_CORE/PokittoCore.cpp:606
    timePerFrame = POK_FRAMEDURATION;
     e36:	2232      	movs	r2, #50	; 0x32
/home/manga/Projects/Pokitto/PyInSky/builds/1/PokittoLib/POKITTO_CORE/PokittoCore.cpp:609
	frameEndMicros = 1;
     e38:	2701      	movs	r7, #1
/home/manga/Projects/Pokitto/PyInSky/builds/1/PokittoLib/POKITTO_CORE/PokittoCore.cpp:610
	startMenuTimer = 255;
     e3a:	24ff      	movs	r4, #255	; 0xff
/home/manga/Projects/Pokitto/PyInSky/builds/1/PokittoLib/POKITTO_CORE/PokittoCore.cpp:606
    timePerFrame = POK_FRAMEDURATION;
     e3c:	4b31      	ldr	r3, [pc, #196]	; (f04 <_ZN7Pokitto4Core5beginEv+0xd4>)
     e3e:	701a      	strb	r2, [r3, #0]
/home/manga/Projects/Pokitto/PyInSky/builds/1/PokittoLib/POKITTO_CORE/PokittoCore.cpp:609
	frameEndMicros = 1;
     e40:	4b31      	ldr	r3, [pc, #196]	; (f08 <_ZN7Pokitto4Core5beginEv+0xd8>)
     e42:	601f      	str	r7, [r3, #0]
/home/manga/Projects/Pokitto/PyInSky/builds/1/PokittoLib/POKITTO_CORE/PokittoCore.cpp:610
	startMenuTimer = 255;
     e44:	4b31      	ldr	r3, [pc, #196]	; (f0c <_ZN7Pokitto4Core5beginEv+0xdc>)
     e46:	701c      	strb	r4, [r3, #0]
/home/manga/Projects/Pokitto/PyInSky/builds/1/PokittoLib/POKITTO_CORE/PokittoCore.cpp:612
	readSettings();
     e48:	f7ff ffe2 	bl	e10 <_ZN7Pokitto4Core12readSettingsEv>
/home/manga/Projects/Pokitto/PyInSky/builds/1/PokittoLib/POKITTO_CORE/PokittoCore.cpp:614
	backlight.begin();
     e4c:	f7ff f9a4 	bl	198 <_ZN7Pokitto9Backlight5beginEv>
/home/manga/Projects/Pokitto/PyInSky/builds/1/PokittoLib/POKITTO_CORE/PokittoCore.cpp:615
	backlight.set(BACKLIGHT_MAX);
     e50:	0020      	movs	r0, r4
/home/manga/Projects/Pokitto/PyInSky/builds/1/PokittoLib/POKITTO_CORE/PokittoCore.cpp:627
    display.directbgcolor = COLOR_BLACK;
     e52:	2400      	movs	r4, #0
/home/manga/Projects/Pokitto/PyInSky/builds/1/PokittoLib/POKITTO_CORE/PokittoCore.cpp:615
	backlight.set(BACKLIGHT_MAX);
     e54:	f7ff f9a1 	bl	19a <_ZN7Pokitto9Backlight3setEh>
/home/manga/Projects/Pokitto/PyInSky/builds/1/PokittoLib/POKITTO_CORE/PokittoCore.cpp:616
	buttons.begin();
     e58:	f7ff f9c2 	bl	1e0 <_ZN7Pokitto7Buttons5beginEv>
/home/manga/Projects/Pokitto/PyInSky/builds/1/PokittoLib/POKITTO_CORE/PokittoCore.cpp:617
	buttons.update();
     e5c:	f7ff f9c4 	bl	1e8 <_ZN7Pokitto7Buttons6updateEv>
/home/manga/Projects/Pokitto/PyInSky/builds/1/PokittoLib/POKITTO_CORE/PokittoCore.cpp:618
	battery.begin();
     e60:	f7ff f99e 	bl	1a0 <_ZN7Pokitto7Battery5beginEv>
/home/manga/Projects/Pokitto/PyInSky/builds/1/PokittoLib/POKITTO_CORE/PokittoCore.cpp:619
	display.begin();
     e64:	f000 fa25 	bl	12b2 <_ZN7Pokitto7Display5beginEv>
/home/manga/Projects/Pokitto/PyInSky/builds/1/PokittoLib/POKITTO_CORE/PokittoCore.cpp:622
        showLogo();
     e68:	f7ff ff76 	bl	d58 <_ZN7Pokitto4Core8showLogoEv>
/home/manga/Projects/Pokitto/PyInSky/builds/1/PokittoLib/POKITTO_CORE/PokittoCore.cpp:626
	display.enableDirectPrinting(true);
     e6c:	0038      	movs	r0, r7
     e6e:	f001 fbb7 	bl	25e0 <_ZN7Pokitto7Display20enableDirectPrintingEh>
/home/manga/Projects/Pokitto/PyInSky/builds/1/PokittoLib/POKITTO_CORE/PokittoCore.cpp:627
    display.directbgcolor = COLOR_BLACK;
     e72:	4e27      	ldr	r6, [pc, #156]	; (f10 <_ZN7Pokitto4Core5beginEv+0xe0>)
     e74:	8034      	strh	r4, [r6, #0]
/home/manga/Projects/Pokitto/PyInSky/builds/1/PokittoLib/POKITTO_CORE/PokittoCore.cpp:628
    display.clearLCD();
     e76:	f000 f9f1 	bl	125c <_ZN7Pokitto7Display8clearLCDEv>
/home/manga/Projects/Pokitto/PyInSky/builds/1/PokittoLib/POKITTO_CORE/PokittoCore.cpp:629
    display.setFont(fntC64UIGfx);
     e7a:	4d26      	ldr	r5, [pc, #152]	; (f14 <_ZN7Pokitto4Core5beginEv+0xe4>)
     e7c:	0028      	movs	r0, r5
     e7e:	f001 f857 	bl	1f30 <_ZN7Pokitto7Display7setFontEPKh>
/home/manga/Projects/Pokitto/PyInSky/builds/1/PokittoLib/POKITTO_CORE/PokittoCore.cpp:631
    display.enableDirectPrinting(true);
     e82:	0038      	movs	r0, r7
     e84:	f001 fbac 	bl	25e0 <_ZN7Pokitto7Display20enableDirectPrintingEh>
/home/manga/Projects/Pokitto/PyInSky/builds/1/PokittoLib/POKITTO_CORE/PokittoCore.cpp:633
    display.directcolor = COLOR_GREEN;
     e88:	22fc      	movs	r2, #252	; 0xfc
     e8a:	4b23      	ldr	r3, [pc, #140]	; (f18 <_ZN7Pokitto4Core5beginEv+0xe8>)
     e8c:	00d2      	lsls	r2, r2, #3
     e8e:	801a      	strh	r2, [r3, #0]
/home/manga/Projects/Pokitto/PyInSky/builds/1/PokittoLib/POKITTO_CORE/PokittoCore.cpp:632
    display.directbgcolor = COLOR_BLACK;
     e90:	8034      	strh	r4, [r6, #0]
/home/manga/Projects/Pokitto/PyInSky/builds/1/PokittoLib/POKITTO_CORE/PokittoCore.cpp:634
    display.clearLCD();
     e92:	f000 f9e3 	bl	125c <_ZN7Pokitto7Display8clearLCDEv>
/home/manga/Projects/Pokitto/PyInSky/builds/1/PokittoLib/POKITTO_CORE/PokittoCore.cpp:635
    display.setFont(fntC64UIGfx);
     e96:	0028      	movs	r0, r5
     e98:	f001 f84a 	bl	1f30 <_ZN7Pokitto7Display7setFontEPKh>
/home/manga/Projects/Pokitto/PyInSky/builds/1/PokittoLib/POKITTO_CORE/PokittoCore.cpp:636
    display.adjustCharStep=0;
     e9c:	4e1f      	ldr	r6, [pc, #124]	; (f1c <_ZN7Pokitto4Core5beginEv+0xec>)
/home/manga/Projects/Pokitto/PyInSky/builds/1/PokittoLib/POKITTO_CORE/PokittoCore.cpp:637
    display.adjustLineStep=1;
     e9e:	4d20      	ldr	r5, [pc, #128]	; (f20 <_ZN7Pokitto4Core5beginEv+0xf0>)
/home/manga/Projects/Pokitto/PyInSky/builds/1/PokittoLib/POKITTO_CORE/PokittoCore.cpp:636
    display.adjustCharStep=0;
     ea0:	7034      	strb	r4, [r6, #0]
/home/manga/Projects/Pokitto/PyInSky/builds/1/PokittoLib/POKITTO_CORE/PokittoCore.cpp:637
    display.adjustLineStep=1;
     ea2:	702f      	strb	r7, [r5, #0]
/home/manga/Projects/Pokitto/PyInSky/builds/1/PokittoLib/POKITTO_CORE/PokittoCore.cpp:644
    askLoader();
     ea4:	f7ff fbd2 	bl	64c <_ZN7Pokitto4Core9askLoaderEv>
/home/manga/Projects/Pokitto/PyInSky/builds/1/PokittoLib/POKITTO_CORE/PokittoCore.cpp:653
	setVolLimit();
     ea8:	f7ff fdc2 	bl	a30 <_ZN7Pokitto4Core11setVolLimitEv>
/home/manga/Projects/Pokitto/PyInSky/builds/1/PokittoLib/POKITTO_CORE/PokittoCore.cpp:654
	display.clear();
     eac:	f000 fcb0 	bl	1810 <_ZN7Pokitto7Display5clearEv>
/home/manga/Projects/Pokitto/PyInSky/builds/1/PokittoLib/POKITTO_CORE/PokittoCore.cpp:655
	display.update();
     eb0:	2358      	movs	r3, #88	; 0x58
     eb2:	0022      	movs	r2, r4
     eb4:	9300      	str	r3, [sp, #0]
     eb6:	0021      	movs	r1, r4
     eb8:	3316      	adds	r3, #22
     eba:	0020      	movs	r0, r4
     ebc:	f000 fcfe 	bl	18bc <_ZN7Pokitto7Display6updateEbhhhh>
/home/manga/Projects/Pokitto/PyInSky/builds/1/PokittoLib/POKITTO_CORE/PokittoCore.cpp:657
	while(buttons.states[BTN_A])
     ec0:	4b18      	ldr	r3, [pc, #96]	; (f24 <_ZN7Pokitto4Core5beginEv+0xf4>)
     ec2:	791c      	ldrb	r4, [r3, #4]
     ec4:	2c00      	cmp	r4, #0
     ec6:	d002      	beq.n	ece <_ZN7Pokitto4Core5beginEv+0x9e>
/home/manga/Projects/Pokitto/PyInSky/builds/1/PokittoLib/POKITTO_CORE/PokittoCore.cpp:659
        buttons.update();
     ec8:	f7ff f98e 	bl	1e8 <_ZN7Pokitto7Buttons6updateEv>
/home/manga/Projects/Pokitto/PyInSky/builds/1/PokittoLib/POKITTO_CORE/PokittoCore.cpp:657
	while(buttons.states[BTN_A])
     ecc:	e7f8      	b.n	ec0 <_ZN7Pokitto4Core5beginEv+0x90>
/home/manga/Projects/Pokitto/PyInSky/builds/1/PokittoLib/POKITTO_CORE/PokittoCore.cpp:664
	display.enableDirectPrinting(false);
     ece:	0020      	movs	r0, r4
     ed0:	f001 fb86 	bl	25e0 <_ZN7Pokitto7Display20enableDirectPrintingEh>
/home/manga/Projects/Pokitto/PyInSky/builds/1/PokittoLib/POKITTO_CORE/PokittoCore.cpp:665
	display.adjustCharStep=1;
     ed4:	2301      	movs	r3, #1
/home/manga/Projects/Pokitto/PyInSky/builds/1/PokittoLib/POKITTO_CORE/PokittoCore.cpp:667
	display.fontSize=1;
     ed6:	4a14      	ldr	r2, [pc, #80]	; (f28 <_ZN7Pokitto4Core5beginEv+0xf8>)
/home/manga/Projects/Pokitto/PyInSky/builds/1/PokittoLib/POKITTO_CORE/PokittoCore.cpp:672
	display.setFont(fontC64);
     ed8:	4814      	ldr	r0, [pc, #80]	; (f2c <_ZN7Pokitto4Core5beginEv+0xfc>)
/home/manga/Projects/Pokitto/PyInSky/builds/1/PokittoLib/POKITTO_CORE/PokittoCore.cpp:667
	display.fontSize=1;
     eda:	7013      	strb	r3, [r2, #0]
/home/manga/Projects/Pokitto/PyInSky/builds/1/PokittoLib/POKITTO_CORE/PokittoCore.cpp:668
	display.textWrap=true;
     edc:	4a14      	ldr	r2, [pc, #80]	; (f30 <_ZN7Pokitto4Core5beginEv+0x100>)
/home/manga/Projects/Pokitto/PyInSky/builds/1/PokittoLib/POKITTO_CORE/PokittoCore.cpp:665
	display.adjustCharStep=1;
     ede:	7033      	strb	r3, [r6, #0]
/home/manga/Projects/Pokitto/PyInSky/builds/1/PokittoLib/POKITTO_CORE/PokittoCore.cpp:666
	display.adjustLineStep=1;
     ee0:	702b      	strb	r3, [r5, #0]
/home/manga/Projects/Pokitto/PyInSky/builds/1/PokittoLib/POKITTO_CORE/PokittoCore.cpp:668
	display.textWrap=true;
     ee2:	7013      	strb	r3, [r2, #0]
/home/manga/Projects/Pokitto/PyInSky/builds/1/PokittoLib/POKITTO_CORE/PokittoCore.cpp:672
	display.setFont(fontC64);
     ee4:	f001 f824 	bl	1f30 <_ZN7Pokitto7Display7setFontEPKh>
/home/manga/Projects/Pokitto/PyInSky/builds/1/PokittoLib/POKITTO_CORE/PokittoCore.cpp:675
        sound.begin();
     ee8:	f001 fe90 	bl	2c0c <_ZN7Pokitto5Sound5beginEv>
/home/manga/Projects/Pokitto/PyInSky/builds/1/PokittoLib/POKITTO_CORE/PokittoCore.cpp:678
	battery.update();
     eec:	f7ff f96a 	bl	1c4 <_ZN7Pokitto7Battery6updateEv>
/home/manga/Projects/Pokitto/PyInSky/builds/1/PokittoLib/POKITTO_CORE/PokittoCore.cpp:679
	if(buttons.pressed(BTN_B)){
     ef0:	2005      	movs	r0, #5
     ef2:	f7ff f99b 	bl	22c <_ZN7Pokitto7Buttons7pressedEh>
     ef6:	2800      	cmp	r0, #0
     ef8:	d002      	beq.n	f00 <_ZN7Pokitto4Core5beginEv+0xd0>
/home/manga/Projects/Pokitto/PyInSky/builds/1/PokittoLib/POKITTO_CORE/PokittoCore.cpp:680
		sound.setVolume(0);
     efa:	0020      	movs	r0, r4
     efc:	f002 f93c 	bl	3178 <_ZN7Pokitto5Sound9setVolumeEs>
/home/manga/Projects/Pokitto/PyInSky/builds/1/PokittoLib/POKITTO_CORE/PokittoCore.cpp:699
}
     f00:	bdf7      	pop	{r0, r1, r2, r4, r5, r6, r7, pc}
     f02:	46c0      	nop			; (mov r8, r8)
     f04:	100001f0 	.word	0x100001f0
     f08:	100001f4 	.word	0x100001f4
     f0c:	100001f8 	.word	0x100001f8
     f10:	100015a2 	.word	0x100015a2
     f14:	00025160 	.word	0x00025160
     f18:	10000106 	.word	0x10000106
     f1c:	10000108 	.word	0x10000108
     f20:	10000109 	.word	0x10000109
     f24:	100001d5 	.word	0x100001d5
     f28:	10000116 	.word	0x10000116
     f2c:	00024dfc 	.word	0x00024dfc
     f30:	10000117 	.word	0x10000117

00000f34 <_ZN7Pokitto4Core11updatePopupEv>:
_ZN7Pokitto4Core11updatePopupEv():
/home/manga/Projects/Pokitto/PyInSky/builds/1/PokittoLib/POKITTO_CORE/PokittoCore.cpp:1320
	popupText = text;
	popupTimeLeft = duration+12;
#endif
}

void Core::updatePopup(){
     f34:	b5f7      	push	{r0, r1, r2, r4, r5, r6, r7, lr}
/home/manga/Projects/Pokitto/PyInSky/builds/1/PokittoLib/POKITTO_CORE/PokittoCore.cpp:1322
#if (ENABLE_GUI > 0)
	if (popupTimeLeft){
     f36:	4d1d      	ldr	r5, [pc, #116]	; (fac <_ZN7Pokitto4Core11updatePopupEv+0x78>)
     f38:	782b      	ldrb	r3, [r5, #0]
     f3a:	2b00      	cmp	r3, #0
     f3c:	d035      	beq.n	faa <_ZN7Pokitto4Core11updatePopupEv+0x76>
/home/manga/Projects/Pokitto/PyInSky/builds/1/PokittoLib/POKITTO_CORE/PokittoCore.cpp:1323
		uint8_t yOffset = 0;
     f3e:	2400      	movs	r4, #0
/home/manga/Projects/Pokitto/PyInSky/builds/1/PokittoLib/POKITTO_CORE/PokittoCore.cpp:1324
		if(popupTimeLeft<12){
     f40:	2b0b      	cmp	r3, #11
     f42:	d802      	bhi.n	f4a <_ZN7Pokitto4Core11updatePopupEv+0x16>
/home/manga/Projects/Pokitto/PyInSky/builds/1/PokittoLib/POKITTO_CORE/PokittoCore.cpp:1325
			yOffset = 12-popupTimeLeft;
     f44:	340c      	adds	r4, #12
     f46:	1ae4      	subs	r4, r4, r3
     f48:	b2e4      	uxtb	r4, r4
/home/manga/Projects/Pokitto/PyInSky/builds/1/PokittoLib/POKITTO_CORE/PokittoCore.cpp:1327
		}
		display.fontSize = 1;
     f4a:	2701      	movs	r7, #1
     f4c:	4b18      	ldr	r3, [pc, #96]	; (fb0 <_ZN7Pokitto4Core11updatePopupEv+0x7c>)
/home/manga/Projects/Pokitto/PyInSky/builds/1/PokittoLib/POKITTO_CORE/PokittoCore.cpp:1328
		display.setColor(WHITE);
     f4e:	2000      	movs	r0, #0
/home/manga/Projects/Pokitto/PyInSky/builds/1/PokittoLib/POKITTO_CORE/PokittoCore.cpp:1327
		display.fontSize = 1;
     f50:	701f      	strb	r7, [r3, #0]
/home/manga/Projects/Pokitto/PyInSky/builds/1/PokittoLib/POKITTO_CORE/PokittoCore.cpp:1328
		display.setColor(WHITE);
     f52:	f000 fcd1 	bl	18f8 <_ZN7Pokitto7Display8setColorEh>
/home/manga/Projects/Pokitto/PyInSky/builds/1/PokittoLib/POKITTO_CORE/PokittoCore.cpp:1329
		display.fillRoundRect(0,LCDHEIGHT-display.fontHeight+yOffset-3,84,display.fontHeight+3,3);
     f56:	2255      	movs	r2, #85	; 0x55
     f58:	2003      	movs	r0, #3
     f5a:	4e16      	ldr	r6, [pc, #88]	; (fb4 <_ZN7Pokitto4Core11updatePopupEv+0x80>)
     f5c:	b2a4      	uxth	r4, r4
     f5e:	7831      	ldrb	r1, [r6, #0]
     f60:	9000      	str	r0, [sp, #0]
     f62:	1ccb      	adds	r3, r1, #3
     f64:	1a51      	subs	r1, r2, r1
     f66:	1861      	adds	r1, r4, r1
     f68:	3a01      	subs	r2, #1
     f6a:	2000      	movs	r0, #0
     f6c:	f000 ffa3 	bl	1eb6 <_ZN7Pokitto7Display13fillRoundRectEsssss>
/home/manga/Projects/Pokitto/PyInSky/builds/1/PokittoLib/POKITTO_CORE/PokittoCore.cpp:1330
		display.setColor(BLACK);
     f70:	0038      	movs	r0, r7
     f72:	f000 fcc1 	bl	18f8 <_ZN7Pokitto7Display8setColorEh>
/home/manga/Projects/Pokitto/PyInSky/builds/1/PokittoLib/POKITTO_CORE/PokittoCore.cpp:1331
		display.drawRoundRect(0,LCDHEIGHT-display.fontHeight+yOffset-3,84,display.fontHeight+3,3);
     f76:	2255      	movs	r2, #85	; 0x55
     f78:	2003      	movs	r0, #3
     f7a:	7831      	ldrb	r1, [r6, #0]
     f7c:	9000      	str	r0, [sp, #0]
     f7e:	1ccb      	adds	r3, r1, #3
     f80:	1a51      	subs	r1, r2, r1
     f82:	1861      	adds	r1, r4, r1
     f84:	3a01      	subs	r2, #1
     f86:	2000      	movs	r0, #0
     f88:	f000 ff2f 	bl	1dea <_ZN7Pokitto7Display13drawRoundRectEsssss>
/home/manga/Projects/Pokitto/PyInSky/builds/1/PokittoLib/POKITTO_CORE/PokittoCore.cpp:1332
		display.cursorX = 4;
     f8c:	2204      	movs	r2, #4
     f8e:	4b0a      	ldr	r3, [pc, #40]	; (fb8 <_ZN7Pokitto4Core11updatePopupEv+0x84>)
     f90:	801a      	strh	r2, [r3, #0]
/home/manga/Projects/Pokitto/PyInSky/builds/1/PokittoLib/POKITTO_CORE/PokittoCore.cpp:1333
		display.cursorY = LCDHEIGHT-display.fontHeight+yOffset-1;
     f92:	7833      	ldrb	r3, [r6, #0]
     f94:	1ae4      	subs	r4, r4, r3
     f96:	4b09      	ldr	r3, [pc, #36]	; (fbc <_ZN7Pokitto4Core11updatePopupEv+0x88>)
     f98:	3457      	adds	r4, #87	; 0x57
     f9a:	801c      	strh	r4, [r3, #0]
/home/manga/Projects/Pokitto/PyInSky/builds/1/PokittoLib/POKITTO_CORE/PokittoCore.cpp:1334
		display.print(popupText);
     f9c:	4b08      	ldr	r3, [pc, #32]	; (fc0 <_ZN7Pokitto4Core11updatePopupEv+0x8c>)
     f9e:	6818      	ldr	r0, [r3, #0]
     fa0:	f001 fbca 	bl	2738 <_ZN7Pokitto7Display5printEPKc>
/home/manga/Projects/Pokitto/PyInSky/builds/1/PokittoLib/POKITTO_CORE/PokittoCore.cpp:1335
		popupTimeLeft--;
     fa4:	782b      	ldrb	r3, [r5, #0]
     fa6:	3b01      	subs	r3, #1
     fa8:	702b      	strb	r3, [r5, #0]
/home/manga/Projects/Pokitto/PyInSky/builds/1/PokittoLib/POKITTO_CORE/PokittoCore.cpp:1338
	}
#endif
}
     faa:	bdf7      	pop	{r0, r1, r2, r4, r5, r6, r7, pc}
     fac:	100001f1 	.word	0x100001f1
     fb0:	10000116 	.word	0x10000116
     fb4:	10000279 	.word	0x10000279
     fb8:	100015c0 	.word	0x100015c0
     fbc:	100015c2 	.word	0x100015c2
     fc0:	10000204 	.word	0x10000204

00000fc4 <_ZN7Pokitto4Core6updateEbhhhh>:
_ZN7Pokitto4Core6updateEbhhhh():
/home/manga/Projects/Pokitto/PyInSky/builds/1/PokittoLib/POKITTO_CORE/PokittoCore.cpp:890
bool Core::update(bool useDirectMode, uint8_t updRectX, uint8_t updRectY, uint8_t updRectW, uint8_t updRectH) {
     fc4:	b5f0      	push	{r4, r5, r6, r7, lr}
     fc6:	b087      	sub	sp, #28
     fc8:	9305      	str	r3, [sp, #20]
     fca:	ab0c      	add	r3, sp, #48	; 0x30
     fcc:	9103      	str	r1, [sp, #12]
     fce:	9204      	str	r2, [sp, #16]
     fd0:	781f      	ldrb	r7, [r3, #0]
     fd2:	0006      	movs	r6, r0
/home/manga/Projects/Pokitto/PyInSky/builds/1/PokittoLib/POKITTO_CORE/PokittoCore.cpp:896
    uint32_t now = getTime();
     fd4:	f002 fff2 	bl	3fbc <_ZN7Pokitto4Core7getTimeEv>
/home/manga/Projects/Pokitto/PyInSky/builds/1/PokittoLib/POKITTO_CORE/PokittoCore.cpp:897
	if ((((nextFrameMillis - now)) > timePerFrame) && frameEndMicros) { //if time to render a new frame is reached and the frame end has ran once
     fd8:	4b19      	ldr	r3, [pc, #100]	; (1040 <_ZN7Pokitto4Core6updateEbhhhh+0x7c>)
     fda:	491a      	ldr	r1, [pc, #104]	; (1044 <_ZN7Pokitto4Core6updateEbhhhh+0x80>)
     fdc:	781b      	ldrb	r3, [r3, #0]
     fde:	680a      	ldr	r2, [r1, #0]
     fe0:	4c19      	ldr	r4, [pc, #100]	; (1048 <_ZN7Pokitto4Core6updateEbhhhh+0x84>)
     fe2:	1a12      	subs	r2, r2, r0
     fe4:	429a      	cmp	r2, r3
     fe6:	d914      	bls.n	1012 <_ZN7Pokitto4Core6updateEbhhhh+0x4e>
/home/manga/Projects/Pokitto/PyInSky/builds/1/PokittoLib/POKITTO_CORE/PokittoCore.cpp:897 (discriminator 1)
     fe8:	6822      	ldr	r2, [r4, #0]
     fea:	2a00      	cmp	r2, #0
     fec:	d011      	beq.n	1012 <_ZN7Pokitto4Core6updateEbhhhh+0x4e>
/home/manga/Projects/Pokitto/PyInSky/builds/1/PokittoLib/POKITTO_CORE/PokittoCore.cpp:899
		frameCount++;
     fee:	4a17      	ldr	r2, [pc, #92]	; (104c <_ZN7Pokitto4Core6updateEbhhhh+0x88>)
/home/manga/Projects/Pokitto/PyInSky/builds/1/PokittoLib/POKITTO_CORE/PokittoCore.cpp:898
		nextFrameMillis = now + timePerFrame;
     ff0:	181b      	adds	r3, r3, r0
     ff2:	600b      	str	r3, [r1, #0]
/home/manga/Projects/Pokitto/PyInSky/builds/1/PokittoLib/POKITTO_CORE/PokittoCore.cpp:899
		frameCount++;
     ff4:	6813      	ldr	r3, [r2, #0]
/home/manga/Projects/Pokitto/PyInSky/builds/1/PokittoLib/POKITTO_CORE/PokittoCore.cpp:919
		return true;
     ff6:	2501      	movs	r5, #1
/home/manga/Projects/Pokitto/PyInSky/builds/1/PokittoLib/POKITTO_CORE/PokittoCore.cpp:899
		frameCount++;
     ff8:	3301      	adds	r3, #1
     ffa:	6013      	str	r3, [r2, #0]
/home/manga/Projects/Pokitto/PyInSky/builds/1/PokittoLib/POKITTO_CORE/PokittoCore.cpp:901
		frameEndMicros = 0;
     ffc:	2300      	movs	r3, #0
     ffe:	6023      	str	r3, [r4, #0]
/home/manga/Projects/Pokitto/PyInSky/builds/1/PokittoLib/POKITTO_CORE/PokittoCore.cpp:902
		backlight.update();
    1000:	f7ff f8cc 	bl	19c <_ZN7Pokitto9Backlight6updateEv>
/home/manga/Projects/Pokitto/PyInSky/builds/1/PokittoLib/POKITTO_CORE/PokittoCore.cpp:903
		buttons.update();
    1004:	f7ff f8f0 	bl	1e8 <_ZN7Pokitto7Buttons6updateEv>
/home/manga/Projects/Pokitto/PyInSky/builds/1/PokittoLib/POKITTO_CORE/PokittoCore.cpp:904
		battery.update();
    1008:	f7ff f8dc 	bl	1c4 <_ZN7Pokitto7Battery6updateEv>
/home/manga/Projects/Pokitto/PyInSky/builds/1/PokittoLib/POKITTO_CORE/PokittoCore.cpp:938
}
    100c:	0028      	movs	r0, r5
    100e:	b007      	add	sp, #28
    1010:	bdf0      	pop	{r4, r5, r6, r7, pc}
/home/manga/Projects/Pokitto/PyInSky/builds/1/PokittoLib/POKITTO_CORE/PokittoCore.cpp:936
		return false;
    1012:	2500      	movs	r5, #0
/home/manga/Projects/Pokitto/PyInSky/builds/1/PokittoLib/POKITTO_CORE/PokittoCore.cpp:922
		if (!frameEndMicros) { //runs once at the end of the frame
    1014:	6823      	ldr	r3, [r4, #0]
    1016:	42ab      	cmp	r3, r5
    1018:	d1f8      	bne.n	100c <_ZN7Pokitto4Core6updateEbhhhh+0x48>
/home/manga/Projects/Pokitto/PyInSky/builds/1/PokittoLib/POKITTO_CORE/PokittoCore.cpp:924
			sound.updateTrack();
    101a:	f001 ff3b 	bl	2e94 <_ZN7Pokitto5Sound11updateTrackEv>
/home/manga/Projects/Pokitto/PyInSky/builds/1/PokittoLib/POKITTO_CORE/PokittoCore.cpp:925
			sound.updatePattern();
    101e:	f001 ffa1 	bl	2f64 <_ZN7Pokitto5Sound13updatePatternEv>
/home/manga/Projects/Pokitto/PyInSky/builds/1/PokittoLib/POKITTO_CORE/PokittoCore.cpp:926
			sound.updateNote();
    1022:	f002 f89d 	bl	3160 <_ZN7Pokitto5Sound10updateNoteEv>
/home/manga/Projects/Pokitto/PyInSky/builds/1/PokittoLib/POKITTO_CORE/PokittoCore.cpp:928
			updatePopup();
    1026:	f7ff ff85 	bl	f34 <_ZN7Pokitto4Core11updatePopupEv>
/home/manga/Projects/Pokitto/PyInSky/builds/1/PokittoLib/POKITTO_CORE/PokittoCore.cpp:931
            display.update(useDirectMode, updRectX, updRectY, updRectW, updRectH); //send the buffer to the screen
    102a:	9b05      	ldr	r3, [sp, #20]
    102c:	9700      	str	r7, [sp, #0]
    102e:	9a04      	ldr	r2, [sp, #16]
    1030:	9903      	ldr	r1, [sp, #12]
    1032:	0030      	movs	r0, r6
    1034:	f000 fc42 	bl	18bc <_ZN7Pokitto7Display6updateEbhhhh>
/home/manga/Projects/Pokitto/PyInSky/builds/1/PokittoLib/POKITTO_CORE/PokittoCore.cpp:933
            frameEndMicros = 1; //jonne
    1038:	2301      	movs	r3, #1
    103a:	6023      	str	r3, [r4, #0]
    103c:	e7e6      	b.n	100c <_ZN7Pokitto4Core6updateEbhhhh+0x48>
    103e:	46c0      	nop			; (mov r8, r8)
    1040:	100001f0 	.word	0x100001f0
    1044:	100001fc 	.word	0x100001fc
    1048:	100001f4 	.word	0x100001f4
    104c:	100001ec 	.word	0x100001ec

00001050 <_GLOBAL__sub_I_selectedfile>:
_GLOBAL__sub_I_selectedfile():
/home/manga/Projects/Pokitto/PyInSky/builds/1/PokittoLib/POKITTO_CORE/PokittoCore.cpp:1386
        return true;
      }
    }
  }
  return false;
}
    1050:	b510      	push	{r4, lr}
__static_initialization_and_destruction_0():
/home/manga/Projects/Pokitto/PyInSky/builds/1/PokittoLib/POKITTO_CORE/PokittoCore.cpp:154
Display Core::display;
    1052:	4802      	ldr	r0, [pc, #8]	; (105c <_GLOBAL__sub_I_selectedfile+0xc>)
    1054:	f000 ff7e 	bl	1f54 <_ZN7Pokitto7DisplayC1Ev>
_GLOBAL__sub_I_selectedfile():
/home/manga/Projects/Pokitto/PyInSky/builds/1/PokittoLib/POKITTO_CORE/PokittoCore.cpp:1386
}
    1058:	bd10      	pop	{r4, pc}
    105a:	46c0      	nop			; (mov r8, r8)
    105c:	10000200 	.word	0x10000200

00001060 <_ZN4mbed3SPID1Ev>:
_ZN4mbed3SPID2Ev():
/home/manga/Projects/Pokitto/PyInSky/builds/1/./PokittoLib/mbed-pokitto/api/SPI.h:223

#endif

public:
    virtual ~SPI() {
    }
    1060:	4770      	bx	lr

00001062 <_ZN4mbed3SPID0Ev>:
_ZN4mbed3SPID0Ev():
/home/manga/Projects/Pokitto/PyInSky/builds/1/./PokittoLib/mbed-pokitto/api/SPI.h:222
    virtual ~SPI() {
    1062:	b510      	push	{r4, lr}
    1064:	0004      	movs	r4, r0
/home/manga/Projects/Pokitto/PyInSky/builds/1/./PokittoLib/mbed-pokitto/api/SPI.h:223
    }
    1066:	f004 f9fc 	bl	5462 <_ZdlPv>
    106a:	0020      	movs	r0, r4
    106c:	bd10      	pop	{r4, pc}

0000106e <_Z10initSDGPIOv>:
_Z10initSDGPIOv():
/home/manga/Projects/Pokitto/PyInSky/builds/1/PokittoLib/POKITTO_CORE/PokittoDisk.cpp:61
    return dot + 1;
}

//__attribute__((section(".SD_Code")))
void initSDGPIO() {
    LPC_GPIO_PORT->DIR[SD_MOSI_PORT] |= (1  << SD_MOSI_PIN );
    106e:	22a0      	movs	r2, #160	; 0xa0
    1070:	2380      	movs	r3, #128	; 0x80
    1072:	2180      	movs	r1, #128	; 0x80
    1074:	0612      	lsls	r2, r2, #24
    1076:	019b      	lsls	r3, r3, #6
    1078:	58d0      	ldr	r0, [r2, r3]
    107a:	0089      	lsls	r1, r1, #2
    107c:	4301      	orrs	r1, r0
    107e:	50d1      	str	r1, [r2, r3]
/home/manga/Projects/Pokitto/PyInSky/builds/1/PokittoLib/POKITTO_CORE/PokittoDisk.cpp:62
    LPC_GPIO_PORT->DIR[SD_MISO_PORT] |= (1  << SD_MISO_PIN );
    1080:	2180      	movs	r1, #128	; 0x80
    1082:	58d0      	ldr	r0, [r2, r3]
    1084:	0049      	lsls	r1, r1, #1
    1086:	4301      	orrs	r1, r0
    1088:	50d1      	str	r1, [r2, r3]
/home/manga/Projects/Pokitto/PyInSky/builds/1/PokittoLib/POKITTO_CORE/PokittoDisk.cpp:63
    LPC_GPIO_PORT->DIR[SD_SCK_PORT]  |= (1  << SD_SCK_PIN );
    108a:	2140      	movs	r1, #64	; 0x40
    108c:	58d0      	ldr	r0, [r2, r3]
    108e:	4301      	orrs	r1, r0
    1090:	50d1      	str	r1, [r2, r3]
/home/manga/Projects/Pokitto/PyInSky/builds/1/PokittoLib/POKITTO_CORE/PokittoDisk.cpp:64
    LPC_GPIO_PORT->DIR[SD_CS_PORT]   |= (1  << SD_CS_PIN );
    1092:	2180      	movs	r1, #128	; 0x80
    1094:	58d0      	ldr	r0, [r2, r3]
    1096:	4301      	orrs	r1, r0
    1098:	50d1      	str	r1, [r2, r3]
/home/manga/Projects/Pokitto/PyInSky/builds/1/PokittoLib/POKITTO_CORE/PokittoDisk.cpp:65
}
    109a:	4770      	bx	lr

0000109c <_Z9pokInitSDv>:
_Z9pokInitSDv():
/home/manga/Projects/Pokitto/PyInSky/builds/1/PokittoLib/POKITTO_CORE/PokittoDisk.cpp:68

//__attribute__((section(".SD_Code")))
int pokInitSD() {
    109c:	b510      	push	{r4, lr}
/home/manga/Projects/Pokitto/PyInSky/builds/1/PokittoLib/POKITTO_CORE/PokittoDisk.cpp:69
    initSDGPIO();
    109e:	f7ff ffe6 	bl	106e <_Z10initSDGPIOv>
/home/manga/Projects/Pokitto/PyInSky/builds/1/PokittoLib/POKITTO_CORE/PokittoDisk.cpp:70
    res = PFFS::disk_initialize();
    10a2:	f003 fbbb 	bl	481c <_ZN4PFFS15disk_initializeEv>
    10a6:	4c09      	ldr	r4, [pc, #36]	; (10cc <_Z9pokInitSDv+0x30>)
    10a8:	7020      	strb	r0, [r4, #0]
/home/manga/Projects/Pokitto/PyInSky/builds/1/PokittoLib/POKITTO_CORE/PokittoDisk.cpp:72
    //res = disk_initialize(0);
    res = (pf_mount(&fs));
    10aa:	4809      	ldr	r0, [pc, #36]	; (10d0 <_Z9pokInitSDv+0x34>)
    10ac:	f003 fdee 	bl	4c8c <_ZN4PFFS8pf_mountEPNS_7_FATFS_E>
/home/manga/Projects/Pokitto/PyInSky/builds/1/PokittoLib/POKITTO_CORE/PokittoDisk.cpp:73
    res = pf_opendir(&dir,"");
    10b0:	4908      	ldr	r1, [pc, #32]	; (10d4 <_Z9pokInitSDv+0x38>)
/home/manga/Projects/Pokitto/PyInSky/builds/1/PokittoLib/POKITTO_CORE/PokittoDisk.cpp:72
    res = (pf_mount(&fs));
    10b2:	7020      	strb	r0, [r4, #0]
/home/manga/Projects/Pokitto/PyInSky/builds/1/PokittoLib/POKITTO_CORE/PokittoDisk.cpp:73
    res = pf_opendir(&dir,"");
    10b4:	4808      	ldr	r0, [pc, #32]	; (10d8 <_Z9pokInitSDv+0x3c>)
    10b6:	f003 ff77 	bl	4fa8 <_ZN4PFFS10pf_opendirEPNS_5_DIR_EPKc>
    10ba:	4b08      	ldr	r3, [pc, #32]	; (10dc <_Z9pokInitSDv+0x40>)
    10bc:	7020      	strb	r0, [r4, #0]
/home/manga/Projects/Pokitto/PyInSky/builds/1/PokittoLib/POKITTO_CORE/PokittoDisk.cpp:74
    if (res) diropened=false;
    10be:	2200      	movs	r2, #0
    10c0:	2800      	cmp	r0, #0
    10c2:	d100      	bne.n	10c6 <_Z9pokInitSDv+0x2a>
/home/manga/Projects/Pokitto/PyInSky/builds/1/PokittoLib/POKITTO_CORE/PokittoDisk.cpp:75
    else diropened=true;
    10c4:	2201      	movs	r2, #1
    10c6:	701a      	strb	r2, [r3, #0]
/home/manga/Projects/Pokitto/PyInSky/builds/1/PokittoLib/POKITTO_CORE/PokittoDisk.cpp:77
    return res;
}
    10c8:	bd10      	pop	{r4, pc}
    10ca:	46c0      	nop			; (mov r8, r8)
    10cc:	10000278 	.word	0x10000278
    10d0:	10000248 	.word	0x10000248
    10d4:	00025fa8 	.word	0x00025fa8
    10d8:	10000230 	.word	0x10000230
    10dc:	10000244 	.word	0x10000244

000010e0 <_Z8fileOpenPcc>:
_Z8fileOpenPcc():
/home/manga/Projects/Pokitto/PyInSky/builds/1/PokittoLib/POKITTO_CORE/PokittoDisk.cpp:205
int fileOK() {
    if (filemode != FILE_MODE_FAILED) return 1;
    return 0;
}

uint8_t fileOpen(char* buffer, char fmode) {
    10e0:	b570      	push	{r4, r5, r6, lr}
/home/manga/Projects/Pokitto/PyInSky/builds/1/PokittoLib/POKITTO_CORE/PokittoDisk.cpp:207
    int err;
    if (filemode == FILE_MODE_UNINITIALIZED) {
    10e2:	4d0f      	ldr	r5, [pc, #60]	; (1120 <_Z8fileOpenPcc+0x40>)
/home/manga/Projects/Pokitto/PyInSky/builds/1/PokittoLib/POKITTO_CORE/PokittoDisk.cpp:205
uint8_t fileOpen(char* buffer, char fmode) {
    10e4:	0006      	movs	r6, r0
/home/manga/Projects/Pokitto/PyInSky/builds/1/PokittoLib/POKITTO_CORE/PokittoDisk.cpp:207
    if (filemode == FILE_MODE_UNINITIALIZED) {
    10e6:	782b      	ldrb	r3, [r5, #0]
/home/manga/Projects/Pokitto/PyInSky/builds/1/PokittoLib/POKITTO_CORE/PokittoDisk.cpp:205
uint8_t fileOpen(char* buffer, char fmode) {
    10e8:	000c      	movs	r4, r1
/home/manga/Projects/Pokitto/PyInSky/builds/1/PokittoLib/POKITTO_CORE/PokittoDisk.cpp:207
    if (filemode == FILE_MODE_UNINITIALIZED) {
    10ea:	2b10      	cmp	r3, #16
    10ec:	d00b      	beq.n	1106 <_Z8fileOpenPcc+0x26>
/home/manga/Projects/Pokitto/PyInSky/builds/1/PokittoLib/POKITTO_CORE/PokittoDisk.cpp:213
        int a = pf_mount(&fs);
        if (a) return 1; // 1 means error in this context
    }

    filemode = fmode;
    err = PFFS::pf_open(buffer);
    10ee:	0030      	movs	r0, r6
/home/manga/Projects/Pokitto/PyInSky/builds/1/PokittoLib/POKITTO_CORE/PokittoDisk.cpp:212
    filemode = fmode;
    10f0:	702c      	strb	r4, [r5, #0]
/home/manga/Projects/Pokitto/PyInSky/builds/1/PokittoLib/POKITTO_CORE/PokittoDisk.cpp:213
    err = PFFS::pf_open(buffer);
    10f2:	f003 fe71 	bl	4dd8 <_ZN4PFFS7pf_openEPKc>
    10f6:	1e04      	subs	r4, r0, #0
/home/manga/Projects/Pokitto/PyInSky/builds/1/PokittoLib/POKITTO_CORE/PokittoDisk.cpp:214
    if (err==0) {
    10f8:	d10d      	bne.n	1116 <_Z8fileOpenPcc+0x36>
/home/manga/Projects/Pokitto/PyInSky/builds/1/PokittoLib/POKITTO_CORE/PokittoDisk.cpp:215
            strcpy(currentfile,(const char*)buffer);
    10fa:	0031      	movs	r1, r6
    10fc:	4809      	ldr	r0, [pc, #36]	; (1124 <_Z8fileOpenPcc+0x44>)
    10fe:	f013 f9a3 	bl	14448 <strcpy>
/home/manga/Projects/Pokitto/PyInSky/builds/1/PokittoLib/POKITTO_CORE/PokittoDisk.cpp:216
            return 0; // 0 means all clear
    1102:	0020      	movs	r0, r4
    1104:	e006      	b.n	1114 <_Z8fileOpenPcc+0x34>
/home/manga/Projects/Pokitto/PyInSky/builds/1/PokittoLib/POKITTO_CORE/PokittoDisk.cpp:208
        int a = pf_mount(&fs);
    1106:	4808      	ldr	r0, [pc, #32]	; (1128 <_Z8fileOpenPcc+0x48>)
    1108:	f003 fdc0 	bl	4c8c <_ZN4PFFS8pf_mountEPNS_7_FATFS_E>
    110c:	0003      	movs	r3, r0
/home/manga/Projects/Pokitto/PyInSky/builds/1/PokittoLib/POKITTO_CORE/PokittoDisk.cpp:209
        if (a) return 1; // 1 means error in this context
    110e:	2001      	movs	r0, #1
    1110:	2b00      	cmp	r3, #0
    1112:	d0ec      	beq.n	10ee <_Z8fileOpenPcc+0xe>
/home/manga/Projects/Pokitto/PyInSky/builds/1/PokittoLib/POKITTO_CORE/PokittoDisk.cpp:221
    }
    // file open failed
    filemode = FILE_MODE_FAILED;
    return 1; // 1 means failed
}
    1114:	bd70      	pop	{r4, r5, r6, pc}
/home/manga/Projects/Pokitto/PyInSky/builds/1/PokittoLib/POKITTO_CORE/PokittoDisk.cpp:219
    filemode = FILE_MODE_FAILED;
    1116:	2308      	movs	r3, #8
/home/manga/Projects/Pokitto/PyInSky/builds/1/PokittoLib/POKITTO_CORE/PokittoDisk.cpp:220
    return 1; // 1 means failed
    1118:	2001      	movs	r0, #1
/home/manga/Projects/Pokitto/PyInSky/builds/1/PokittoLib/POKITTO_CORE/PokittoDisk.cpp:219
    filemode = FILE_MODE_FAILED;
    111a:	702b      	strb	r3, [r5, #0]
/home/manga/Projects/Pokitto/PyInSky/builds/1/PokittoLib/POKITTO_CORE/PokittoDisk.cpp:220
    return 1; // 1 means failed
    111c:	e7fa      	b.n	1114 <_Z8fileOpenPcc+0x34>
    111e:	46c0      	nop			; (mov r8, r8)
    1120:	10000104 	.word	0x10000104
    1124:	10000209 	.word	0x10000209
    1128:	10000248 	.word	0x10000248

0000112c <_Z13fileReadBytesPht>:
_Z13fileReadBytesPht():
/home/manga/Projects/Pokitto/PyInSky/builds/1/PokittoLib/POKITTO_CORE/PokittoDisk.cpp:247
    PFFS::WORD bw;
    PFFS::pf_write((const void*)&b, n, &bw);
    PFFS::pf_write(0, 0, &bw);
}

uint16_t fileReadBytes(uint8_t * b, uint16_t n) {
    112c:	b513      	push	{r0, r1, r4, lr}
/home/manga/Projects/Pokitto/PyInSky/builds/1/PokittoLib/POKITTO_CORE/PokittoDisk.cpp:249
    PFFS::WORD br;
    PFFS::pf_read(b, n, &br);    /* Read data to the buff[] */
    112e:	466b      	mov	r3, sp
    1130:	1d9c      	adds	r4, r3, #6
    1132:	0022      	movs	r2, r4
    1134:	f003 fe80 	bl	4e38 <_ZN4PFFS7pf_readEPvtPt>
/home/manga/Projects/Pokitto/PyInSky/builds/1/PokittoLib/POKITTO_CORE/PokittoDisk.cpp:250
    return br;             /* Return number of bytes read */
    1138:	8820      	ldrh	r0, [r4, #0]
/home/manga/Projects/Pokitto/PyInSky/builds/1/PokittoLib/POKITTO_CORE/PokittoDisk.cpp:251
}
    113a:	bd16      	pop	{r1, r2, r4, pc}

0000113c <_Z16fileSeekRelativel>:
_Z16fileSeekRelativel():
/home/manga/Projects/Pokitto/PyInSky/builds/1/PokittoLib/POKITTO_CORE/PokittoDisk.cpp:257

void fileSeekAbsolute(long n) {
    res = PFFS::pf_lseek(n);
}

void fileSeekRelative(long n) {
    113c:	4b07      	ldr	r3, [pc, #28]	; (115c <_Z16fileSeekRelativel+0x20>)
    113e:	b510      	push	{r4, lr}
    1140:	69db      	ldr	r3, [r3, #28]
/home/manga/Projects/Pokitto/PyInSky/builds/1/PokittoLib/POKITTO_CORE/PokittoDisk.cpp:258
    if (n<0) if (fs.fptr < -n) n=-fs.fptr;
    1142:	2800      	cmp	r0, #0
    1144:	da03      	bge.n	114e <_Z16fileSeekRelativel+0x12>
/home/manga/Projects/Pokitto/PyInSky/builds/1/PokittoLib/POKITTO_CORE/PokittoDisk.cpp:258 (discriminator 1)
    1146:	4242      	negs	r2, r0
    1148:	429a      	cmp	r2, r3
    114a:	d900      	bls.n	114e <_Z16fileSeekRelativel+0x12>
/home/manga/Projects/Pokitto/PyInSky/builds/1/PokittoLib/POKITTO_CORE/PokittoDisk.cpp:258 (discriminator 2)
    114c:	4258      	negs	r0, r3
/home/manga/Projects/Pokitto/PyInSky/builds/1/PokittoLib/POKITTO_CORE/PokittoDisk.cpp:260
    else if (n>0) if (fs.fptr+n > fs.fsize) n=fs.fsize-fs.fptr;
    res = PFFS::pf_lseek(fs.fptr + n);
    114e:	18c0      	adds	r0, r0, r3
    1150:	f003 fed4 	bl	4efc <_ZN4PFFS8pf_lseekEm>
    1154:	4b02      	ldr	r3, [pc, #8]	; (1160 <_Z16fileSeekRelativel+0x24>)
    1156:	7018      	strb	r0, [r3, #0]
/home/manga/Projects/Pokitto/PyInSky/builds/1/PokittoLib/POKITTO_CORE/PokittoDisk.cpp:261
}
    1158:	bd10      	pop	{r4, pc}
    115a:	46c0      	nop			; (mov r8, r8)
    115c:	10000248 	.word	0x10000248
    1160:	10000278 	.word	0x10000278

00001164 <_Z10fileRewindv>:
_Z10fileRewindv():
/home/manga/Projects/Pokitto/PyInSky/builds/1/PokittoLib/POKITTO_CORE/PokittoDisk.cpp:263

void fileRewind() {
    1164:	b510      	push	{r4, lr}
/home/manga/Projects/Pokitto/PyInSky/builds/1/PokittoLib/POKITTO_CORE/PokittoDisk.cpp:264
  res = PFFS::pf_lseek(0);
    1166:	2000      	movs	r0, #0
    1168:	f003 fec8 	bl	4efc <_ZN4PFFS8pf_lseekEm>
    116c:	4b01      	ldr	r3, [pc, #4]	; (1174 <_Z10fileRewindv+0x10>)
    116e:	7018      	strb	r0, [r3, #0]
/home/manga/Projects/Pokitto/PyInSky/builds/1/PokittoLib/POKITTO_CORE/PokittoDisk.cpp:265
}
    1170:	bd10      	pop	{r4, pc}
    1172:	46c0      	nop			; (mov r8, r8)
    1174:	10000278 	.word	0x10000278

00001178 <_Z7fileEndv>:
_Z7fileEndv():
/home/manga/Projects/Pokitto/PyInSky/builds/1/PokittoLib/POKITTO_CORE/PokittoDisk.cpp:268

void fileEnd() {
  res = PFFS::pf_lseek(fs.fsize);
    1178:	4b03      	ldr	r3, [pc, #12]	; (1188 <_Z7fileEndv+0x10>)
/home/manga/Projects/Pokitto/PyInSky/builds/1/PokittoLib/POKITTO_CORE/PokittoDisk.cpp:267
void fileEnd() {
    117a:	b510      	push	{r4, lr}
/home/manga/Projects/Pokitto/PyInSky/builds/1/PokittoLib/POKITTO_CORE/PokittoDisk.cpp:268
  res = PFFS::pf_lseek(fs.fsize);
    117c:	6a18      	ldr	r0, [r3, #32]
    117e:	f003 febd 	bl	4efc <_ZN4PFFS8pf_lseekEm>
    1182:	4b02      	ldr	r3, [pc, #8]	; (118c <_Z7fileEndv+0x14>)
    1184:	7018      	strb	r0, [r3, #0]
/home/manga/Projects/Pokitto/PyInSky/builds/1/PokittoLib/POKITTO_CORE/PokittoDisk.cpp:269
}
    1186:	bd10      	pop	{r4, pc}
    1188:	10000248 	.word	0x10000248
    118c:	10000278 	.word	0x10000278

00001190 <_Z15fileGetPositionv>:
_Z15fileGetPositionv():
/home/manga/Projects/Pokitto/PyInSky/builds/1/PokittoLib/POKITTO_CORE/PokittoDisk.cpp:272

long int fileGetPosition() {
    return fs.fptr;
    1190:	4b01      	ldr	r3, [pc, #4]	; (1198 <_Z15fileGetPositionv+0x8>)
    1192:	69d8      	ldr	r0, [r3, #28]
/home/manga/Projects/Pokitto/PyInSky/builds/1/PokittoLib/POKITTO_CORE/PokittoDisk.cpp:273
}
    1194:	4770      	bx	lr
    1196:	46c0      	nop			; (mov r8, r8)
    1198:	10000248 	.word	0x10000248

0000119c <_GLOBAL__sub_I_res>:
_GLOBAL__sub_I_res():
/home/manga/Projects/Pokitto/PyInSky/builds/1/PokittoLib/POKITTO_CORE/PokittoDisk.cpp:50
SPI device(CONNECT_MOSI,CONNECT_MISO,CONNECT_SCK);
    119c:	2301      	movs	r3, #1
    119e:	2281      	movs	r2, #129	; 0x81
/home/manga/Projects/Pokitto/PyInSky/builds/1/PokittoLib/POKITTO_CORE/PokittoDisk.cpp:311
}

int dirUp() {

return 0;
}
    11a0:	b513      	push	{r0, r1, r4, lr}
/home/manga/Projects/Pokitto/PyInSky/builds/1/PokittoLib/POKITTO_CORE/PokittoDisk.cpp:50
SPI device(CONNECT_MOSI,CONNECT_MISO,CONNECT_SCK);
    11a2:	4c07      	ldr	r4, [pc, #28]	; (11c0 <_GLOBAL__sub_I_res+0x24>)
    11a4:	425b      	negs	r3, r3
    11a6:	9300      	str	r3, [sp, #0]
    11a8:	0152      	lsls	r2, r2, #5
    11aa:	4b06      	ldr	r3, [pc, #24]	; (11c4 <_GLOBAL__sub_I_res+0x28>)
    11ac:	4906      	ldr	r1, [pc, #24]	; (11c8 <_GLOBAL__sub_I_res+0x2c>)
    11ae:	0020      	movs	r0, r4
    11b0:	f003 ffb6 	bl	5120 <_ZN4mbed3SPIC1E7PinNameS1_S1_S1_>
    11b4:	4a05      	ldr	r2, [pc, #20]	; (11cc <_GLOBAL__sub_I_res+0x30>)
    11b6:	4906      	ldr	r1, [pc, #24]	; (11d0 <_GLOBAL__sub_I_res+0x34>)
    11b8:	0020      	movs	r0, r4
    11ba:	f004 f950 	bl	545e <__aeabi_atexit>
/home/manga/Projects/Pokitto/PyInSky/builds/1/PokittoLib/POKITTO_CORE/PokittoDisk.cpp:311
}
    11be:	bd13      	pop	{r0, r1, r4, pc}
    11c0:	10000218 	.word	0x10000218
    11c4:	00000c18 	.word	0x00000c18
    11c8:	00001224 	.word	0x00001224
    11cc:	10000100 	.word	0x10000100
    11d0:	00001061 	.word	0x00001061

000011d4 <_ZN7Pokitto7Display12drawPixelNOPEssh>:
_ZN7Pokitto7Display12drawPixelNOPEssh():
/home/manga/Projects/Pokitto/PyInSky/builds/1/PokittoLib/POKITTO_CORE/PokittoDisplay.cpp:679
void Display::setClipRect(int16_t x, int16_t y, int16_t w, int16_t h) {
    clipX = x; clipY = y; clipW = w; clipH = h;
}

void Display::drawPixelNOP(int16_t x,int16_t y, uint8_t col) {
}
    11d4:	4770      	bx	lr
    11d6:	Address 0x00000000000011d6 is out of bounds.


000011d8 <_ZN7Pokitto7Display12drawPixelRawEssh>:
_ZN7Pokitto7Display12drawPixelRawEssh():
/home/manga/Projects/Pokitto/PyInSky/builds/1/PokittoLib/POKITTO_CORE/PokittoDisplay.cpp:681

void Display::drawPixelRaw(int16_t x,int16_t y, uint8_t col) {
    11d8:	000b      	movs	r3, r1
    11da:	b510      	push	{r4, lr}
/home/manga/Projects/Pokitto/PyInSky/builds/1/PokittoLib/POKITTO_CORE/PokittoDisplay.cpp:735
	}
	ct >>=1; // shift to get next bit
	bitptr += POK_BITFRAME; // move one screen worth of buffer forward to get to the next color bit
    } // POK_COLOURDEPTH
    #elif POK_COLORDEPTH == 4
    uint16_t i = y*(width>>1) + (x>>1);
    11dc:	490b      	ldr	r1, [pc, #44]	; (120c <_ZN7Pokitto7Display12drawPixelRawEssh+0x34>)
    11de:	240f      	movs	r4, #15
    11e0:	7809      	ldrb	r1, [r1, #0]
    11e2:	1049      	asrs	r1, r1, #1
    11e4:	4359      	muls	r1, r3
    11e6:	1043      	asrs	r3, r0, #1
    11e8:	18c9      	adds	r1, r1, r3
/home/manga/Projects/Pokitto/PyInSky/builds/1/PokittoLib/POKITTO_CORE/PokittoDisplay.cpp:736
    uint8_t pixel = m_scrbuf[i];
    11ea:	4b09      	ldr	r3, [pc, #36]	; (1210 <_ZN7Pokitto7Display12drawPixelRawEssh+0x38>)
    11ec:	b289      	uxth	r1, r1
    11ee:	681b      	ldr	r3, [r3, #0]
    11f0:	1859      	adds	r1, r3, r1
    11f2:	780b      	ldrb	r3, [r1, #0]
/home/manga/Projects/Pokitto/PyInSky/builds/1/PokittoLib/POKITTO_CORE/PokittoDisplay.cpp:737
    if (x&1) pixel = (pixel&0xF0)|(col);
    11f4:	07c0      	lsls	r0, r0, #31
    11f6:	d503      	bpl.n	1200 <_ZN7Pokitto7Display12drawPixelRawEssh+0x28>
/home/manga/Projects/Pokitto/PyInSky/builds/1/PokittoLib/POKITTO_CORE/PokittoDisplay.cpp:737 (discriminator 1)
    11f8:	43a3      	bics	r3, r4
    11fa:	431a      	orrs	r2, r3
/home/manga/Projects/Pokitto/PyInSky/builds/1/PokittoLib/POKITTO_CORE/PokittoDisplay.cpp:739
    else pixel = (pixel&0x0F) | (col<<4);
    m_scrbuf[i] = pixel;
    11fc:	700a      	strb	r2, [r1, #0]
/home/manga/Projects/Pokitto/PyInSky/builds/1/PokittoLib/POKITTO_CORE/PokittoDisplay.cpp:742
    #endif // POK_COLORDEPTH
    #endif // POK_GAMEBUINO_SUPPORT
}
    11fe:	bd10      	pop	{r4, pc}
/home/manga/Projects/Pokitto/PyInSky/builds/1/PokittoLib/POKITTO_CORE/PokittoDisplay.cpp:738
    else pixel = (pixel&0x0F) | (col<<4);
    1200:	4023      	ands	r3, r4
    1202:	0112      	lsls	r2, r2, #4
    1204:	431a      	orrs	r2, r3
    1206:	b2d2      	uxtb	r2, r2
    1208:	e7f8      	b.n	11fc <_ZN7Pokitto7Display12drawPixelRawEssh+0x24>
    120a:	46c0      	nop			; (mov r8, r8)
    120c:	10000114 	.word	0x10000114
    1210:	100017c4 	.word	0x100017c4

00001214 <_ZN7Pokitto7Display9drawPixelEssh>:
_ZN7Pokitto7Display9drawPixelEssh():
/home/manga/Projects/Pokitto/PyInSky/builds/1/PokittoLib/POKITTO_CORE/PokittoDisplay.cpp:745

void Display::drawPixel(int16_t x,int16_t y, uint8_t col) {
    if (col==invisiblecolor) return; // do not draw transparent pixels
    1214:	4b08      	ldr	r3, [pc, #32]	; (1238 <_ZN7Pokitto7Display9drawPixelEssh+0x24>)
/home/manga/Projects/Pokitto/PyInSky/builds/1/PokittoLib/POKITTO_CORE/PokittoDisplay.cpp:744
void Display::drawPixel(int16_t x,int16_t y, uint8_t col) {
    1216:	b510      	push	{r4, lr}
/home/manga/Projects/Pokitto/PyInSky/builds/1/PokittoLib/POKITTO_CORE/PokittoDisplay.cpp:745
    if (col==invisiblecolor) return; // do not draw transparent pixels
    1218:	881b      	ldrh	r3, [r3, #0]
    121a:	429a      	cmp	r2, r3
    121c:	d00b      	beq.n	1236 <_ZN7Pokitto7Display9drawPixelEssh+0x22>
/home/manga/Projects/Pokitto/PyInSky/builds/1/PokittoLib/POKITTO_CORE/PokittoDisplay.cpp:746
    if ((uint16_t)x >= width || (uint16_t)y >= height) return;
    121e:	4b07      	ldr	r3, [pc, #28]	; (123c <_ZN7Pokitto7Display9drawPixelEssh+0x28>)
    1220:	781c      	ldrb	r4, [r3, #0]
    1222:	b283      	uxth	r3, r0
    1224:	429c      	cmp	r4, r3
    1226:	d906      	bls.n	1236 <_ZN7Pokitto7Display9drawPixelEssh+0x22>
    1228:	4b05      	ldr	r3, [pc, #20]	; (1240 <_ZN7Pokitto7Display9drawPixelEssh+0x2c>)
    122a:	781c      	ldrb	r4, [r3, #0]
    122c:	b28b      	uxth	r3, r1
    122e:	429c      	cmp	r4, r3
    1230:	d901      	bls.n	1236 <_ZN7Pokitto7Display9drawPixelEssh+0x22>
/home/manga/Projects/Pokitto/PyInSky/builds/1/PokittoLib/POKITTO_CORE/PokittoDisplay.cpp:748
    col &= (PALETTE_SIZE-1);
    drawPixelRaw( x, y, col );
    1232:	f7ff ffd1 	bl	11d8 <_ZN7Pokitto7Display12drawPixelRawEssh>
/home/manga/Projects/Pokitto/PyInSky/builds/1/PokittoLib/POKITTO_CORE/PokittoDisplay.cpp:749
}
    1236:	bd10      	pop	{r4, pc}
    1238:	1000010a 	.word	0x1000010a
    123c:	10000114 	.word	0x10000114
    1240:	10000115 	.word	0x10000115

00001244 <_ZN7Pokitto7Display8getWidthEv>:
_ZN7Pokitto7Display8getWidthEv():
/home/manga/Projects/Pokitto/PyInSky/builds/1/PokittoLib/POKITTO_CORE/PokittoDisplay.cpp:216
    return width;
    1244:	4b01      	ldr	r3, [pc, #4]	; (124c <_ZN7Pokitto7Display8getWidthEv+0x8>)
    1246:	7818      	ldrb	r0, [r3, #0]
/home/manga/Projects/Pokitto/PyInSky/builds/1/PokittoLib/POKITTO_CORE/PokittoDisplay.cpp:217
}
    1248:	4770      	bx	lr
    124a:	46c0      	nop			; (mov r8, r8)
    124c:	10000114 	.word	0x10000114

00001250 <_ZN7Pokitto7Display9getHeightEv>:
_ZN7Pokitto7Display9getHeightEv():
/home/manga/Projects/Pokitto/PyInSky/builds/1/PokittoLib/POKITTO_CORE/PokittoDisplay.cpp:224
    return height;
    1250:	4b01      	ldr	r3, [pc, #4]	; (1258 <_ZN7Pokitto7Display9getHeightEv+0x8>)
    1252:	7818      	ldrb	r0, [r3, #0]
/home/manga/Projects/Pokitto/PyInSky/builds/1/PokittoLib/POKITTO_CORE/PokittoDisplay.cpp:225
}
    1254:	4770      	bx	lr
    1256:	46c0      	nop			; (mov r8, r8)
    1258:	10000115 	.word	0x10000115

0000125c <_ZN7Pokitto7Display8clearLCDEv>:
_ZN7Pokitto7Display8clearLCDEv():
/home/manga/Projects/Pokitto/PyInSky/builds/1/PokittoLib/POKITTO_CORE/PokittoDisplay.cpp:236
void Display::clearLCD() {
    125c:	b510      	push	{r4, lr}
/home/manga/Projects/Pokitto/PyInSky/builds/1/PokittoLib/POKITTO_CORE/PokittoDisplay.cpp:237
    lcdFillSurface(0);
    125e:	2000      	movs	r0, #0
    1260:	f002 fa6e 	bl	3740 <_ZN7Pokitto14lcdFillSurfaceEt>
_ZN7Pokitto7Display9setCursorEss():
/home/manga/Projects/Pokitto/PyInSky/builds/1/PokittoLib/POKITTO_CORE/PokittoDisplay.cpp:263
    cursorX = x;
    1264:	2300      	movs	r3, #0
    1266:	4a02      	ldr	r2, [pc, #8]	; (1270 <_ZN7Pokitto7Display8clearLCDEv+0x14>)
    1268:	8013      	strh	r3, [r2, #0]
/home/manga/Projects/Pokitto/PyInSky/builds/1/PokittoLib/POKITTO_CORE/PokittoDisplay.cpp:264
    cursorY = y;
    126a:	4a02      	ldr	r2, [pc, #8]	; (1274 <_ZN7Pokitto7Display8clearLCDEv+0x18>)
    126c:	8013      	strh	r3, [r2, #0]
_ZN7Pokitto7Display8clearLCDEv():
/home/manga/Projects/Pokitto/PyInSky/builds/1/PokittoLib/POKITTO_CORE/PokittoDisplay.cpp:239
}
    126e:	bd10      	pop	{r4, pc}
    1270:	100015c0 	.word	0x100015c0
    1274:	100015c2 	.word	0x100015c2

00001278 <_ZN7Pokitto7Display7fillLCDEt>:
_ZN7Pokitto7Display7fillLCDEt():
/home/manga/Projects/Pokitto/PyInSky/builds/1/PokittoLib/POKITTO_CORE/PokittoDisplay.cpp:241
void Display::fillLCD(uint16_t c) {
    1278:	b510      	push	{r4, lr}
/home/manga/Projects/Pokitto/PyInSky/builds/1/PokittoLib/POKITTO_CORE/PokittoDisplay.cpp:242
    lcdFillSurface(c);
    127a:	f002 fa61 	bl	3740 <_ZN7Pokitto14lcdFillSurfaceEt>
/home/manga/Projects/Pokitto/PyInSky/builds/1/PokittoLib/POKITTO_CORE/PokittoDisplay.cpp:243
}
    127e:	bd10      	pop	{r4, pc}

00001280 <_ZN7Pokitto7Display11directPixelEsst>:
_ZN7Pokitto7Display11directPixelEsst():
/home/manga/Projects/Pokitto/PyInSky/builds/1/PokittoLib/POKITTO_CORE/PokittoDisplay.cpp:246
    if ((invisiblecolor < PALETTE_SIZE) && (invisiblecolor < 16) && (color == palette[invisiblecolor])) return;
    1280:	4b06      	ldr	r3, [pc, #24]	; (129c <_ZN7Pokitto7Display11directPixelEsst+0x1c>)
/home/manga/Projects/Pokitto/PyInSky/builds/1/PokittoLib/POKITTO_CORE/PokittoDisplay.cpp:245
void Display::directPixel(int16_t x, int16_t y, uint16_t color) {
    1282:	b510      	push	{r4, lr}
/home/manga/Projects/Pokitto/PyInSky/builds/1/PokittoLib/POKITTO_CORE/PokittoDisplay.cpp:246
    if ((invisiblecolor < PALETTE_SIZE) && (invisiblecolor < 16) && (color == palette[invisiblecolor])) return;
    1284:	881b      	ldrh	r3, [r3, #0]
    1286:	2b0f      	cmp	r3, #15
    1288:	d804      	bhi.n	1294 <_ZN7Pokitto7Display11directPixelEsst+0x14>
/home/manga/Projects/Pokitto/PyInSky/builds/1/PokittoLib/POKITTO_CORE/PokittoDisplay.cpp:246 (discriminator 1)
    128a:	4c05      	ldr	r4, [pc, #20]	; (12a0 <_ZN7Pokitto7Display11directPixelEsst+0x20>)
    128c:	005b      	lsls	r3, r3, #1
    128e:	5b1b      	ldrh	r3, [r3, r4]
    1290:	4293      	cmp	r3, r2
    1292:	d001      	beq.n	1298 <_ZN7Pokitto7Display11directPixelEsst+0x18>
/home/manga/Projects/Pokitto/PyInSky/builds/1/PokittoLib/POKITTO_CORE/PokittoDisplay.cpp:247
    lcdPixel(x,y,color);
    1294:	f002 fbc0 	bl	3a18 <_ZN7Pokitto8lcdPixelEsst>
/home/manga/Projects/Pokitto/PyInSky/builds/1/PokittoLib/POKITTO_CORE/PokittoDisplay.cpp:248
}
    1298:	bd10      	pop	{r4, pc}
    129a:	46c0      	nop			; (mov r8, r8)
    129c:	1000010a 	.word	0x1000010a
    12a0:	100015c4 	.word	0x100015c4

000012a4 <_ZN7Pokitto7Display15directRectangleEsssst>:
_ZN7Pokitto7Display15directRectangleEsssst():
/home/manga/Projects/Pokitto/PyInSky/builds/1/PokittoLib/POKITTO_CORE/PokittoDisplay.cpp:254
void Display::directRectangle(int16_t x, int16_t y,int16_t x2, int16_t y2, uint16_t color) {
    12a4:	b513      	push	{r0, r1, r4, lr}
    12a6:	ac04      	add	r4, sp, #16
    12a8:	8824      	ldrh	r4, [r4, #0]
/home/manga/Projects/Pokitto/PyInSky/builds/1/PokittoLib/POKITTO_CORE/PokittoDisplay.cpp:255
    lcdRectangle(x,y,x2,y2,color);
    12aa:	9400      	str	r4, [sp, #0]
    12ac:	f002 fbe4 	bl	3a78 <_ZN7Pokitto12lcdRectangleEsssst>
/home/manga/Projects/Pokitto/PyInSky/builds/1/PokittoLib/POKITTO_CORE/PokittoDisplay.cpp:256
}
    12b0:	bd13      	pop	{r0, r1, r4, pc}

000012b2 <_ZN7Pokitto7Display5beginEv>:
_ZN7Pokitto7Display5beginEv():
/home/manga/Projects/Pokitto/PyInSky/builds/1/PokittoLib/POKITTO_CORE/PokittoDisplay.cpp:258
void Display::begin() {
    12b2:	b510      	push	{r4, lr}
/home/manga/Projects/Pokitto/PyInSky/builds/1/PokittoLib/POKITTO_CORE/PokittoDisplay.cpp:259
    lcdInit();
    12b4:	f002 faa4 	bl	3800 <_ZN7Pokitto7lcdInitEv>
/home/manga/Projects/Pokitto/PyInSky/builds/1/PokittoLib/POKITTO_CORE/PokittoDisplay.cpp:260
}
    12b8:	bd10      	pop	{r4, pc}
    12ba:	Address 0x00000000000012ba is out of bounds.


000012bc <_ZN7Pokitto7Display9setCursorEss>:
_ZN7Pokitto7Display9setCursorEss():
/home/manga/Projects/Pokitto/PyInSky/builds/1/PokittoLib/POKITTO_CORE/PokittoDisplay.cpp:263
    cursorX = x;
    12bc:	4b02      	ldr	r3, [pc, #8]	; (12c8 <_ZN7Pokitto7Display9setCursorEss+0xc>)
    12be:	8018      	strh	r0, [r3, #0]
/home/manga/Projects/Pokitto/PyInSky/builds/1/PokittoLib/POKITTO_CORE/PokittoDisplay.cpp:264
    cursorY = y;
    12c0:	4b02      	ldr	r3, [pc, #8]	; (12cc <_ZN7Pokitto7Display9setCursorEss+0x10>)
    12c2:	8019      	strh	r1, [r3, #0]
/home/manga/Projects/Pokitto/PyInSky/builds/1/PokittoLib/POKITTO_CORE/PokittoDisplay.cpp:265
}
    12c4:	4770      	bx	lr
    12c6:	46c0      	nop			; (mov r8, r8)
    12c8:	100015c0 	.word	0x100015c0
    12cc:	100015c2 	.word	0x100015c2

000012d0 <_ZN7Pokitto7Display12directBitmapEssPKhhh>:
_ZN7Pokitto7Display12directBitmapEssPKhhh():
/home/manga/Projects/Pokitto/PyInSky/builds/1/PokittoLib/POKITTO_CORE/PokittoDisplay.cpp:381
void Display::directBitmap(int16_t x, int16_t y, const uint8_t *bitmap, uint8_t depth, uint8_t scale) {
    12d0:	b5f0      	push	{r4, r5, r6, r7, lr}
    12d2:	b08f      	sub	sp, #60	; 0x3c
    12d4:	910a      	str	r1, [sp, #40]	; 0x28
    12d6:	a914      	add	r1, sp, #80	; 0x50
    12d8:	7809      	ldrb	r1, [r1, #0]
    12da:	9009      	str	r0, [sp, #36]	; 0x24
    12dc:	9108      	str	r1, [sp, #32]
/home/manga/Projects/Pokitto/PyInSky/builds/1/PokittoLib/POKITTO_CORE/PokittoDisplay.cpp:382
    uint8_t w = *bitmap;
    12de:	7811      	ldrb	r1, [r2, #0]
    12e0:	9107      	str	r1, [sp, #28]
/home/manga/Projects/Pokitto/PyInSky/builds/1/PokittoLib/POKITTO_CORE/PokittoDisplay.cpp:383
	uint8_t h = *(bitmap + 1);
    12e2:	7851      	ldrb	r1, [r2, #1]
/home/manga/Projects/Pokitto/PyInSky/builds/1/PokittoLib/POKITTO_CORE/PokittoDisplay.cpp:384
	bitmap = bitmap + 2; //add an offset to the pointer to start after the width and height
    12e4:	3202      	adds	r2, #2
/home/manga/Projects/Pokitto/PyInSky/builds/1/PokittoLib/POKITTO_CORE/PokittoDisplay.cpp:383
	uint8_t h = *(bitmap + 1);
    12e6:	9106      	str	r1, [sp, #24]
/home/manga/Projects/Pokitto/PyInSky/builds/1/PokittoLib/POKITTO_CORE/PokittoDisplay.cpp:384
	bitmap = bitmap + 2; //add an offset to the pointer to start after the width and height
    12e8:	9203      	str	r2, [sp, #12]
/home/manga/Projects/Pokitto/PyInSky/builds/1/PokittoLib/POKITTO_CORE/PokittoDisplay.cpp:388
    if (depth == 1) {
    12ea:	2b01      	cmp	r3, #1
    12ec:	d161      	bne.n	13b2 <_ZN7Pokitto7Display12directBitmapEssPKhhh+0xe2>
    12ee:	466b      	mov	r3, sp
    12f0:	221c      	movs	r2, #28
    12f2:	5e9b      	ldrsh	r3, [r3, r2]
    12f4:	930c      	str	r3, [sp, #48]	; 0x30
/home/manga/Projects/Pokitto/PyInSky/builds/1/PokittoLib/POKITTO_CORE/PokittoDisplay.cpp:386
    int8_t byteNum, bitNum, byteWidth = (w + 7) >> 3;
    12f6:	9b07      	ldr	r3, [sp, #28]
    12f8:	3307      	adds	r3, #7
    12fa:	10db      	asrs	r3, r3, #3
    12fc:	9307      	str	r3, [sp, #28]
/home/manga/Projects/Pokitto/PyInSky/builds/1/PokittoLib/POKITTO_CORE/PokittoDisplay.cpp:389
        for (i = 0; i < w; i++) {
    12fe:	2300      	movs	r3, #0
/home/manga/Projects/Pokitto/PyInSky/builds/1/PokittoLib/POKITTO_CORE/PokittoDisplay.cpp:389 (discriminator 1)
    1300:	9a0c      	ldr	r2, [sp, #48]	; 0x30
    1302:	429a      	cmp	r2, r3
    1304:	d100      	bne.n	1308 <_ZN7Pokitto7Display12directBitmapEssPKhhh+0x38>
    1306:	e0e5      	b.n	14d4 <_ZN7Pokitto7Display12directBitmapEssPKhhh+0x204>
/home/manga/Projects/Pokitto/PyInSky/builds/1/PokittoLib/POKITTO_CORE/PokittoDisplay.cpp:390
            byteNum = i / 8;
    1308:	10da      	asrs	r2, r3, #3
    130a:	b252      	sxtb	r2, r2
    130c:	920d      	str	r2, [sp, #52]	; 0x34
/home/manga/Projects/Pokitto/PyInSky/builds/1/PokittoLib/POKITTO_CORE/PokittoDisplay.cpp:393
                if (*(bitmap + j * byteWidth + byteNum) & (0x80 >> bitNum)) { //0x80 = B10000000
    130e:	2207      	movs	r2, #7
    1310:	2180      	movs	r1, #128	; 0x80
    1312:	401a      	ands	r2, r3
    1314:	4111      	asrs	r1, r2
/home/manga/Projects/Pokitto/PyInSky/builds/1/PokittoLib/POKITTO_CORE/PokittoDisplay.cpp:396
                        directPixel(x + i + i, y + j + j,directcolor);
    1316:	466a      	mov	r2, sp
    1318:	2600      	movs	r6, #0
    131a:	b29b      	uxth	r3, r3
    131c:	8c92      	ldrh	r2, [r2, #36]	; 0x24
    131e:	9302      	str	r3, [sp, #8]
    1320:	005b      	lsls	r3, r3, #1
    1322:	b29b      	uxth	r3, r3
    1324:	9201      	str	r2, [sp, #4]
    1326:	18d2      	adds	r2, r2, r3
    1328:	b212      	sxth	r2, r2
    132a:	9204      	str	r2, [sp, #16]
    132c:	9a01      	ldr	r2, [sp, #4]
/home/manga/Projects/Pokitto/PyInSky/builds/1/PokittoLib/POKITTO_CORE/PokittoDisplay.cpp:393
                if (*(bitmap + j * byteWidth + byteNum) & (0x80 >> bitNum)) { //0x80 = B10000000
    132e:	910b      	str	r1, [sp, #44]	; 0x2c
    1330:	3201      	adds	r2, #1
    1332:	189b      	adds	r3, r3, r2
    1334:	b21b      	sxth	r3, r3
    1336:	9305      	str	r3, [sp, #20]
/home/manga/Projects/Pokitto/PyInSky/builds/1/PokittoLib/POKITTO_CORE/PokittoDisplay.cpp:392 (discriminator 1)
            for (j = 0; j < h; j++) {
    1338:	9b06      	ldr	r3, [sp, #24]
    133a:	429e      	cmp	r6, r3
    133c:	da35      	bge.n	13aa <_ZN7Pokitto7Display12directBitmapEssPKhhh+0xda>
/home/manga/Projects/Pokitto/PyInSky/builds/1/PokittoLib/POKITTO_CORE/PokittoDisplay.cpp:393
                if (*(bitmap + j * byteWidth + byteNum) & (0x80 >> bitNum)) { //0x80 = B10000000
    133e:	9b03      	ldr	r3, [sp, #12]
    1340:	9a0d      	ldr	r2, [sp, #52]	; 0x34
    1342:	189a      	adds	r2, r3, r2
    1344:	9b07      	ldr	r3, [sp, #28]
    1346:	4373      	muls	r3, r6
    1348:	5cd3      	ldrb	r3, [r2, r3]
    134a:	9a0b      	ldr	r2, [sp, #44]	; 0x2c
    134c:	421a      	tst	r2, r3
    134e:	d00e      	beq.n	136e <_ZN7Pokitto7Display12directBitmapEssPKhhh+0x9e>
    1350:	4b61      	ldr	r3, [pc, #388]	; (14d8 <_ZN7Pokitto7Display12directBitmapEssPKhhh+0x208>)
    1352:	881a      	ldrh	r2, [r3, #0]
    1354:	466b      	mov	r3, sp
    1356:	8d1d      	ldrh	r5, [r3, #40]	; 0x28
/home/manga/Projects/Pokitto/PyInSky/builds/1/PokittoLib/POKITTO_CORE/PokittoDisplay.cpp:394
                    if (scale==1) directPixel(x + i, y + j,directcolor);
    1358:	9b08      	ldr	r3, [sp, #32]
    135a:	2b01      	cmp	r3, #1
    135c:	d109      	bne.n	1372 <_ZN7Pokitto7Display12directBitmapEssPKhhh+0xa2>
/home/manga/Projects/Pokitto/PyInSky/builds/1/PokittoLib/POKITTO_CORE/PokittoDisplay.cpp:394 (discriminator 1)
    135e:	9b01      	ldr	r3, [sp, #4]
    1360:	9802      	ldr	r0, [sp, #8]
    1362:	19ad      	adds	r5, r5, r6
    1364:	1818      	adds	r0, r3, r0
    1366:	b229      	sxth	r1, r5
    1368:	b200      	sxth	r0, r0
/home/manga/Projects/Pokitto/PyInSky/builds/1/PokittoLib/POKITTO_CORE/PokittoDisplay.cpp:399
                        directPixel(x + i + i + 1 , y + j + j + 1,directcolor);
    136a:	f7ff ff89 	bl	1280 <_ZN7Pokitto7Display11directPixelEsst>
    136e:	3601      	adds	r6, #1
/home/manga/Projects/Pokitto/PyInSky/builds/1/PokittoLib/POKITTO_CORE/PokittoDisplay.cpp:392 (discriminator 2)
            for (j = 0; j < h; j++) {
    1370:	e7e2      	b.n	1338 <_ZN7Pokitto7Display12directBitmapEssPKhhh+0x68>
    1372:	0074      	lsls	r4, r6, #1
    1374:	b2a4      	uxth	r4, r4
    1376:	1967      	adds	r7, r4, r5
    1378:	b23f      	sxth	r7, r7
/home/manga/Projects/Pokitto/PyInSky/builds/1/PokittoLib/POKITTO_CORE/PokittoDisplay.cpp:396
                        directPixel(x + i + i, y + j + j,directcolor);
    137a:	0039      	movs	r1, r7
    137c:	9804      	ldr	r0, [sp, #16]
    137e:	f7ff ff7f 	bl	1280 <_ZN7Pokitto7Display11directPixelEsst>
/home/manga/Projects/Pokitto/PyInSky/builds/1/PokittoLib/POKITTO_CORE/PokittoDisplay.cpp:397
                        directPixel(x + 1 + i + i, y + j + j,directcolor);
    1382:	4b55      	ldr	r3, [pc, #340]	; (14d8 <_ZN7Pokitto7Display12directBitmapEssPKhhh+0x208>)
    1384:	0039      	movs	r1, r7
    1386:	881a      	ldrh	r2, [r3, #0]
    1388:	9805      	ldr	r0, [sp, #20]
    138a:	3501      	adds	r5, #1
    138c:	f7ff ff78 	bl	1280 <_ZN7Pokitto7Display11directPixelEsst>
    1390:	1965      	adds	r5, r4, r5
/home/manga/Projects/Pokitto/PyInSky/builds/1/PokittoLib/POKITTO_CORE/PokittoDisplay.cpp:398
                        directPixel(x + i + i, y + j + j + 1,directcolor);
    1392:	4b51      	ldr	r3, [pc, #324]	; (14d8 <_ZN7Pokitto7Display12directBitmapEssPKhhh+0x208>)
    1394:	b22d      	sxth	r5, r5
    1396:	881a      	ldrh	r2, [r3, #0]
    1398:	0029      	movs	r1, r5
    139a:	9804      	ldr	r0, [sp, #16]
    139c:	f7ff ff70 	bl	1280 <_ZN7Pokitto7Display11directPixelEsst>
/home/manga/Projects/Pokitto/PyInSky/builds/1/PokittoLib/POKITTO_CORE/PokittoDisplay.cpp:399
                        directPixel(x + i + i + 1 , y + j + j + 1,directcolor);
    13a0:	4b4d      	ldr	r3, [pc, #308]	; (14d8 <_ZN7Pokitto7Display12directBitmapEssPKhhh+0x208>)
    13a2:	0029      	movs	r1, r5
    13a4:	881a      	ldrh	r2, [r3, #0]
    13a6:	9805      	ldr	r0, [sp, #20]
    13a8:	e7df      	b.n	136a <_ZN7Pokitto7Display12directBitmapEssPKhhh+0x9a>
/home/manga/Projects/Pokitto/PyInSky/builds/1/PokittoLib/POKITTO_CORE/PokittoDisplay.cpp:389 (discriminator 2)
        for (i = 0; i < w; i++) {
    13aa:	9b02      	ldr	r3, [sp, #8]
    13ac:	3301      	adds	r3, #1
    13ae:	b21b      	sxth	r3, r3
    13b0:	e7a6      	b.n	1300 <_ZN7Pokitto7Display12directBitmapEssPKhhh+0x30>
/home/manga/Projects/Pokitto/PyInSky/builds/1/PokittoLib/POKITTO_CORE/PokittoDisplay.cpp:404
    } else if (depth == 4) {
    13b2:	2b04      	cmp	r3, #4
    13b4:	d000      	beq.n	13b8 <_ZN7Pokitto7Display12directBitmapEssPKhhh+0xe8>
    13b6:	e08d      	b.n	14d4 <_ZN7Pokitto7Display12directBitmapEssPKhhh+0x204>
    13b8:	466b      	mov	r3, sp
    13ba:	8d1b      	ldrh	r3, [r3, #40]	; 0x28
    13bc:	9302      	str	r3, [sp, #8]
    13be:	9a02      	ldr	r2, [sp, #8]
    13c0:	9b06      	ldr	r3, [sp, #24]
    13c2:	4694      	mov	ip, r2
    13c4:	4463      	add	r3, ip
    13c6:	b29b      	uxth	r3, r3
    13c8:	930a      	str	r3, [sp, #40]	; 0x28
    13ca:	0013      	movs	r3, r2
    13cc:	9304      	str	r3, [sp, #16]
/home/manga/Projects/Pokitto/PyInSky/builds/1/PokittoLib/POKITTO_CORE/PokittoDisplay.cpp:405
        for (j = 0; j < h; j+=1) {
    13ce:	9b04      	ldr	r3, [sp, #16]
    13d0:	9a0a      	ldr	r2, [sp, #40]	; 0x28
    13d2:	4293      	cmp	r3, r2
    13d4:	d100      	bne.n	13d8 <_ZN7Pokitto7Display12directBitmapEssPKhhh+0x108>
    13d6:	e07d      	b.n	14d4 <_ZN7Pokitto7Display12directBitmapEssPKhhh+0x204>
/home/manga/Projects/Pokitto/PyInSky/builds/1/PokittoLib/POKITTO_CORE/PokittoDisplay.cpp:409
                        directPixel(x + (i<<1), y + (j<<1),col);
    13d8:	466b      	mov	r3, sp
    13da:	2208      	movs	r2, #8
    13dc:	5e9b      	ldrsh	r3, [r3, r2]
    13de:	9305      	str	r3, [sp, #20]
    13e0:	9b02      	ldr	r3, [sp, #8]
    13e2:	3301      	adds	r3, #1
    13e4:	b21b      	sxth	r3, r3
    13e6:	9306      	str	r3, [sp, #24]
/home/manga/Projects/Pokitto/PyInSky/builds/1/PokittoLib/POKITTO_CORE/PokittoDisplay.cpp:406
            for (i = 0; i < w; i+=2) {
    13e8:	2300      	movs	r3, #0
    13ea:	9301      	str	r3, [sp, #4]
    13ec:	9a01      	ldr	r2, [sp, #4]
    13ee:	9b07      	ldr	r3, [sp, #28]
    13f0:	4293      	cmp	r3, r2
    13f2:	dd67      	ble.n	14c4 <_ZN7Pokitto7Display12directBitmapEssPKhhh+0x1f4>
/home/manga/Projects/Pokitto/PyInSky/builds/1/PokittoLib/POKITTO_CORE/PokittoDisplay.cpp:407
                uint16_t col = paletteptr[*bitmap>>4]; //higher nibble
    13f4:	9b03      	ldr	r3, [sp, #12]
    13f6:	4a39      	ldr	r2, [pc, #228]	; (14dc <_ZN7Pokitto7Display12directBitmapEssPKhhh+0x20c>)
    13f8:	781b      	ldrb	r3, [r3, #0]
    13fa:	6812      	ldr	r2, [r2, #0]
    13fc:	111b      	asrs	r3, r3, #4
    13fe:	005b      	lsls	r3, r3, #1
    1400:	5a9e      	ldrh	r6, [r3, r2]
    1402:	466b      	mov	r3, sp
    1404:	8c9c      	ldrh	r4, [r3, #36]	; 0x24
/home/manga/Projects/Pokitto/PyInSky/builds/1/PokittoLib/POKITTO_CORE/PokittoDisplay.cpp:408
                if (scale==2) {
    1406:	9b08      	ldr	r3, [sp, #32]
    1408:	2b02      	cmp	r3, #2
    140a:	d14a      	bne.n	14a2 <_ZN7Pokitto7Display12directBitmapEssPKhhh+0x1d2>
    140c:	9b01      	ldr	r3, [sp, #4]
/home/manga/Projects/Pokitto/PyInSky/builds/1/PokittoLib/POKITTO_CORE/PokittoDisplay.cpp:409
                        directPixel(x + (i<<1), y + (j<<1),col);
    140e:	0032      	movs	r2, r6
    1410:	005d      	lsls	r5, r3, #1
    1412:	b2ad      	uxth	r5, r5
    1414:	1967      	adds	r7, r4, r5
    1416:	b23f      	sxth	r7, r7
    1418:	9905      	ldr	r1, [sp, #20]
    141a:	0038      	movs	r0, r7
    141c:	f7ff ff30 	bl	1280 <_ZN7Pokitto7Display11directPixelEsst>
    1420:	1c63      	adds	r3, r4, #1
    1422:	18ed      	adds	r5, r5, r3
    1424:	b22d      	sxth	r5, r5
/home/manga/Projects/Pokitto/PyInSky/builds/1/PokittoLib/POKITTO_CORE/PokittoDisplay.cpp:410
                        directPixel(x + (i<<1) + 1, y + (j<<1),col);
    1426:	0032      	movs	r2, r6
    1428:	9905      	ldr	r1, [sp, #20]
    142a:	0028      	movs	r0, r5
    142c:	f7ff ff28 	bl	1280 <_ZN7Pokitto7Display11directPixelEsst>
/home/manga/Projects/Pokitto/PyInSky/builds/1/PokittoLib/POKITTO_CORE/PokittoDisplay.cpp:411
                        directPixel(x + (i<<1) + 1, y + (j<<1) + 1,col);
    1430:	0032      	movs	r2, r6
    1432:	9906      	ldr	r1, [sp, #24]
    1434:	0028      	movs	r0, r5
    1436:	f7ff ff23 	bl	1280 <_ZN7Pokitto7Display11directPixelEsst>
/home/manga/Projects/Pokitto/PyInSky/builds/1/PokittoLib/POKITTO_CORE/PokittoDisplay.cpp:412
                        directPixel(x + (i<<1), y + (j<<1) + 1,col);
    143a:	0032      	movs	r2, r6
    143c:	0038      	movs	r0, r7
    143e:	9906      	ldr	r1, [sp, #24]
/home/manga/Projects/Pokitto/PyInSky/builds/1/PokittoLib/POKITTO_CORE/PokittoDisplay.cpp:413
                } else directPixel(x + i, y + j,col);
    1440:	f7ff ff1e 	bl	1280 <_ZN7Pokitto7Display11directPixelEsst>
/home/manga/Projects/Pokitto/PyInSky/builds/1/PokittoLib/POKITTO_CORE/PokittoDisplay.cpp:414
                col = paletteptr[*bitmap&0xF]; // lower nibble
    1444:	220f      	movs	r2, #15
    1446:	9b03      	ldr	r3, [sp, #12]
    1448:	781b      	ldrb	r3, [r3, #0]
    144a:	4013      	ands	r3, r2
    144c:	4a23      	ldr	r2, [pc, #140]	; (14dc <_ZN7Pokitto7Display12directBitmapEssPKhhh+0x20c>)
    144e:	005b      	lsls	r3, r3, #1
    1450:	6812      	ldr	r2, [r2, #0]
    1452:	5a9f      	ldrh	r7, [r3, r2]
/home/manga/Projects/Pokitto/PyInSky/builds/1/PokittoLib/POKITTO_CORE/PokittoDisplay.cpp:415
                if (scale==2) {
    1454:	9b08      	ldr	r3, [sp, #32]
    1456:	2b02      	cmp	r3, #2
    1458:	d12b      	bne.n	14b2 <_ZN7Pokitto7Display12directBitmapEssPKhhh+0x1e2>
    145a:	9b01      	ldr	r3, [sp, #4]
    145c:	1ca6      	adds	r6, r4, #2
    145e:	005d      	lsls	r5, r3, #1
    1460:	b2ad      	uxth	r5, r5
    1462:	19ae      	adds	r6, r5, r6
    1464:	3403      	adds	r4, #3
    1466:	b236      	sxth	r6, r6
    1468:	192d      	adds	r5, r5, r4
/home/manga/Projects/Pokitto/PyInSky/builds/1/PokittoLib/POKITTO_CORE/PokittoDisplay.cpp:416
                        directPixel(x + (i<<1) + 2, y + (j<<1),col);
    146a:	003a      	movs	r2, r7
    146c:	9905      	ldr	r1, [sp, #20]
    146e:	0030      	movs	r0, r6
    1470:	b22d      	sxth	r5, r5
    1472:	f7ff ff05 	bl	1280 <_ZN7Pokitto7Display11directPixelEsst>
/home/manga/Projects/Pokitto/PyInSky/builds/1/PokittoLib/POKITTO_CORE/PokittoDisplay.cpp:417
                        directPixel(x + (i<<1) + 1 + 2, y + (j<<1),col);
    1476:	003a      	movs	r2, r7
    1478:	9905      	ldr	r1, [sp, #20]
    147a:	0028      	movs	r0, r5
    147c:	f7ff ff00 	bl	1280 <_ZN7Pokitto7Display11directPixelEsst>
/home/manga/Projects/Pokitto/PyInSky/builds/1/PokittoLib/POKITTO_CORE/PokittoDisplay.cpp:418
                        directPixel(x + (i<<1) + 1 + 2, y + (j<<1) + 1,col);
    1480:	003a      	movs	r2, r7
    1482:	9906      	ldr	r1, [sp, #24]
    1484:	0028      	movs	r0, r5
    1486:	f7ff fefb 	bl	1280 <_ZN7Pokitto7Display11directPixelEsst>
/home/manga/Projects/Pokitto/PyInSky/builds/1/PokittoLib/POKITTO_CORE/PokittoDisplay.cpp:419
                        directPixel(x + (i<<1) + 2 , y + (j<<1) + 1,col);
    148a:	003a      	movs	r2, r7
    148c:	0030      	movs	r0, r6
    148e:	9906      	ldr	r1, [sp, #24]
/home/manga/Projects/Pokitto/PyInSky/builds/1/PokittoLib/POKITTO_CORE/PokittoDisplay.cpp:420
                } else directPixel(x + i + 1, y + j,col);
    1490:	f7ff fef6 	bl	1280 <_ZN7Pokitto7Display11directPixelEsst>
/home/manga/Projects/Pokitto/PyInSky/builds/1/PokittoLib/POKITTO_CORE/PokittoDisplay.cpp:421
                bitmap++;
    1494:	9b03      	ldr	r3, [sp, #12]
    1496:	3301      	adds	r3, #1
    1498:	9303      	str	r3, [sp, #12]
    149a:	9b01      	ldr	r3, [sp, #4]
    149c:	3302      	adds	r3, #2
    149e:	b21b      	sxth	r3, r3
    14a0:	e7a3      	b.n	13ea <_ZN7Pokitto7Display12directBitmapEssPKhhh+0x11a>
/home/manga/Projects/Pokitto/PyInSky/builds/1/PokittoLib/POKITTO_CORE/PokittoDisplay.cpp:413
                } else directPixel(x + i, y + j,col);
    14a2:	466b      	mov	r3, sp
    14a4:	2110      	movs	r1, #16
    14a6:	5e59      	ldrsh	r1, [r3, r1]
    14a8:	9b01      	ldr	r3, [sp, #4]
    14aa:	0032      	movs	r2, r6
    14ac:	18e0      	adds	r0, r4, r3
    14ae:	b200      	sxth	r0, r0
    14b0:	e7c6      	b.n	1440 <_ZN7Pokitto7Display12directBitmapEssPKhhh+0x170>
/home/manga/Projects/Pokitto/PyInSky/builds/1/PokittoLib/POKITTO_CORE/PokittoDisplay.cpp:420
                } else directPixel(x + i + 1, y + j,col);
    14b2:	466b      	mov	r3, sp
    14b4:	2110      	movs	r1, #16
    14b6:	5e59      	ldrsh	r1, [r3, r1]
    14b8:	9b01      	ldr	r3, [sp, #4]
    14ba:	3401      	adds	r4, #1
    14bc:	18e4      	adds	r4, r4, r3
    14be:	b220      	sxth	r0, r4
    14c0:	003a      	movs	r2, r7
    14c2:	e7e5      	b.n	1490 <_ZN7Pokitto7Display12directBitmapEssPKhhh+0x1c0>
    14c4:	9b02      	ldr	r3, [sp, #8]
    14c6:	3302      	adds	r3, #2
    14c8:	b29b      	uxth	r3, r3
    14ca:	9302      	str	r3, [sp, #8]
    14cc:	9b04      	ldr	r3, [sp, #16]
    14ce:	3301      	adds	r3, #1
    14d0:	b29b      	uxth	r3, r3
    14d2:	e77b      	b.n	13cc <_ZN7Pokitto7Display12directBitmapEssPKhhh+0xfc>
/home/manga/Projects/Pokitto/PyInSky/builds/1/PokittoLib/POKITTO_CORE/PokittoDisplay.cpp:426
}
    14d4:	b00f      	add	sp, #60	; 0x3c
    14d6:	bdf0      	pop	{r4, r5, r6, r7, pc}
    14d8:	10000106 	.word	0x10000106
    14dc:	1000027c 	.word	0x1000027c

000014e0 <_ZN7Pokitto7Display10directCharEsst>:
_ZN7Pokitto7Display10directCharEsst():
/home/manga/Projects/Pokitto/PyInSky/builds/1/PokittoLib/POKITTO_CORE/PokittoDisplay.cpp:428
int Display::directChar(int16_t x, int16_t y, uint16_t index){
    14e0:	b5f0      	push	{r4, r5, r6, r7, lr}
    14e2:	b08d      	sub	sp, #52	; 0x34
    14e4:	900b      	str	r0, [sp, #44]	; 0x2c
/home/manga/Projects/Pokitto/PyInSky/builds/1/PokittoLib/POKITTO_CORE/PokittoDisplay.cpp:433
	if (h==8 || h==16) xtra=0; //don't add if exactly on byte limit
    14e6:	20f7      	movs	r0, #247	; 0xf7
/home/manga/Projects/Pokitto/PyInSky/builds/1/PokittoLib/POKITTO_CORE/PokittoDisplay.cpp:429
    const uint8_t* bitmap = font;
    14e8:	4b4b      	ldr	r3, [pc, #300]	; (1618 <_ZN7Pokitto7Display10directCharEsst+0x138>)
/home/manga/Projects/Pokitto/PyInSky/builds/1/PokittoLib/POKITTO_CORE/PokittoDisplay.cpp:428
int Display::directChar(int16_t x, int16_t y, uint16_t index){
    14ea:	910a      	str	r1, [sp, #40]	; 0x28
/home/manga/Projects/Pokitto/PyInSky/builds/1/PokittoLib/POKITTO_CORE/PokittoDisplay.cpp:429
    const uint8_t* bitmap = font;
    14ec:	681b      	ldr	r3, [r3, #0]
/home/manga/Projects/Pokitto/PyInSky/builds/1/PokittoLib/POKITTO_CORE/PokittoDisplay.cpp:439
    numBytes = *bitmap++; //first byte of char is the width in bytes
    14ee:	2500      	movs	r5, #0
/home/manga/Projects/Pokitto/PyInSky/builds/1/PokittoLib/POKITTO_CORE/PokittoDisplay.cpp:431
	uint8_t h = *(bitmap + 1);
    14f0:	7859      	ldrb	r1, [r3, #1]
    14f2:	9102      	str	r1, [sp, #8]
/home/manga/Projects/Pokitto/PyInSky/builds/1/PokittoLib/POKITTO_CORE/PokittoDisplay.cpp:433
	if (h==8 || h==16) xtra=0; //don't add if exactly on byte limit
    14f4:	3908      	subs	r1, #8
    14f6:	4001      	ands	r1, r0
    14f8:	1e48      	subs	r0, r1, #1
    14fa:	4181      	sbcs	r1, r0
/home/manga/Projects/Pokitto/PyInSky/builds/1/PokittoLib/POKITTO_CORE/PokittoDisplay.cpp:434
	hbytes=(h>>3)+xtra; //GLCD fonts are arranged w+1 times h/8 bytes
    14fc:	9802      	ldr	r0, [sp, #8]
    14fe:	10c0      	asrs	r0, r0, #3
    1500:	1809      	adds	r1, r1, r0
    1502:	9108      	str	r1, [sp, #32]
/home/manga/Projects/Pokitto/PyInSky/builds/1/PokittoLib/POKITTO_CORE/PokittoDisplay.cpp:436
	bitmap = bitmap + 4 + index * (w * hbytes + 1); //add an offset to the pointer (fonts !)
    1504:	9808      	ldr	r0, [sp, #32]
    1506:	7819      	ldrb	r1, [r3, #0]
    1508:	4341      	muls	r1, r0
    150a:	3101      	adds	r1, #1
    150c:	434a      	muls	r2, r1
    150e:	3204      	adds	r2, #4
    1510:	189b      	adds	r3, r3, r2
/home/manga/Projects/Pokitto/PyInSky/builds/1/PokittoLib/POKITTO_CORE/PokittoDisplay.cpp:439
    numBytes = *bitmap++; //first byte of char is the width in bytes
    1512:	1c5a      	adds	r2, r3, #1
    1514:	781b      	ldrb	r3, [r3, #0]
    1516:	b25b      	sxtb	r3, r3
    1518:	9309      	str	r3, [sp, #36]	; 0x24
/home/manga/Projects/Pokitto/PyInSky/builds/1/PokittoLib/POKITTO_CORE/PokittoDisplay.cpp:443 (discriminator 1)
	for (i = 0; i < numBytes; i++) {
    151a:	9909      	ldr	r1, [sp, #36]	; 0x24
    151c:	b26b      	sxtb	r3, r5
    151e:	4299      	cmp	r1, r3
    1520:	dd6f      	ble.n	1602 <_ZN7Pokitto7Display10directCharEsst+0x122>
/home/manga/Projects/Pokitto/PyInSky/builds/1/PokittoLib/POKITTO_CORE/PokittoDisplay.cpp:445
            if (hbytes == 2) bitcolumn |= (*bitmap++)<<8; // add second byte for 16 bit high fonts
    1522:	9b08      	ldr	r3, [sp, #32]
/home/manga/Projects/Pokitto/PyInSky/builds/1/PokittoLib/POKITTO_CORE/PokittoDisplay.cpp:444
            bitcolumn = *bitmap++;
    1524:	7811      	ldrb	r1, [r2, #0]
/home/manga/Projects/Pokitto/PyInSky/builds/1/PokittoLib/POKITTO_CORE/PokittoDisplay.cpp:445
            if (hbytes == 2) bitcolumn |= (*bitmap++)<<8; // add second byte for 16 bit high fonts
    1526:	2b02      	cmp	r3, #2
    1528:	d044      	beq.n	15b4 <_ZN7Pokitto7Display10directCharEsst+0xd4>
/home/manga/Projects/Pokitto/PyInSky/builds/1/PokittoLib/POKITTO_CORE/PokittoDisplay.cpp:444
            bitcolumn = *bitmap++;
    152a:	1c53      	adds	r3, r2, #1
    152c:	9307      	str	r3, [sp, #28]
    152e:	b28b      	uxth	r3, r1
/home/manga/Projects/Pokitto/PyInSky/builds/1/PokittoLib/POKITTO_CORE/PokittoDisplay.cpp:445 (discriminator 1)
            if (hbytes == 2) bitcolumn |= (*bitmap++)<<8; // add second byte for 16 bit high fonts
    1530:	9304      	str	r3, [sp, #16]
/home/manga/Projects/Pokitto/PyInSky/builds/1/PokittoLib/POKITTO_CORE/PokittoDisplay.cpp:460 (discriminator 1)
                        directPixel(x + (i<<1)  , y + (j<<1),directbgcolor);
    1532:	466b      	mov	r3, sp
    1534:	8d9b      	ldrh	r3, [r3, #44]	; 0x2c
    1536:	9303      	str	r3, [sp, #12]
    1538:	9a03      	ldr	r2, [sp, #12]
    153a:	006b      	lsls	r3, r5, #1
    153c:	b29b      	uxth	r3, r3
    153e:	18d2      	adds	r2, r2, r3
    1540:	b212      	sxth	r2, r2
    1542:	9206      	str	r2, [sp, #24]
    1544:	9a03      	ldr	r2, [sp, #12]
    1546:	3201      	adds	r2, #1
    1548:	189b      	adds	r3, r3, r2
    154a:	b21b      	sxth	r3, r3
    154c:	9305      	str	r3, [sp, #20]
/home/manga/Projects/Pokitto/PyInSky/builds/1/PokittoLib/POKITTO_CORE/PokittoDisplay.cpp:446 (discriminator 1)
            for (j = 0; j < h; j++) {
    154e:	2300      	movs	r3, #0
/home/manga/Projects/Pokitto/PyInSky/builds/1/PokittoLib/POKITTO_CORE/PokittoDisplay.cpp:446
    1550:	9301      	str	r3, [sp, #4]
    1552:	9a02      	ldr	r2, [sp, #8]
    1554:	4b31      	ldr	r3, [pc, #196]	; (161c <_ZN7Pokitto7Display10directCharEsst+0x13c>)
    1556:	9901      	ldr	r1, [sp, #4]
    1558:	781b      	ldrb	r3, [r3, #0]
    155a:	428a      	cmp	r2, r1
    155c:	dd4d      	ble.n	15fa <_ZN7Pokitto7Display10directCharEsst+0x11a>
/home/manga/Projects/Pokitto/PyInSky/builds/1/PokittoLib/POKITTO_CORE/PokittoDisplay.cpp:447
                if (bitcolumn&0x1) {
    155e:	2101      	movs	r1, #1
    1560:	9a04      	ldr	r2, [sp, #16]
    1562:	420a      	tst	r2, r1
    1564:	d02c      	beq.n	15c0 <_ZN7Pokitto7Display10directCharEsst+0xe0>
    1566:	466a      	mov	r2, sp
    1568:	4e2d      	ldr	r6, [pc, #180]	; (1620 <_ZN7Pokitto7Display10directCharEsst+0x140>)
    156a:	8d11      	ldrh	r1, [r2, #40]	; 0x28
    156c:	8894      	ldrh	r4, [r2, #4]
    156e:	8832      	ldrh	r2, [r6, #0]
/home/manga/Projects/Pokitto/PyInSky/builds/1/PokittoLib/POKITTO_CORE/PokittoDisplay.cpp:459
                    if (fontSize==2) {
    1570:	2b02      	cmp	r3, #2
    1572:	d130      	bne.n	15d6 <_ZN7Pokitto7Display10directCharEsst+0xf6>
/home/manga/Projects/Pokitto/PyInSky/builds/1/PokittoLib/POKITTO_CORE/PokittoDisplay.cpp:460
                        directPixel(x + (i<<1)  , y + (j<<1),directbgcolor);
    1574:	0064      	lsls	r4, r4, #1
    1576:	190c      	adds	r4, r1, r4
    1578:	b2a4      	uxth	r4, r4
    157a:	b227      	sxth	r7, r4
    157c:	0039      	movs	r1, r7
    157e:	9806      	ldr	r0, [sp, #24]
/home/manga/Projects/Pokitto/PyInSky/builds/1/PokittoLib/POKITTO_CORE/PokittoDisplay.cpp:462
                        directPixel(x + (i<<1)  , y + (j<<1)+1,directbgcolor);
    1580:	3401      	adds	r4, #1
/home/manga/Projects/Pokitto/PyInSky/builds/1/PokittoLib/POKITTO_CORE/PokittoDisplay.cpp:460
                        directPixel(x + (i<<1)  , y + (j<<1),directbgcolor);
    1582:	f7ff fe7d 	bl	1280 <_ZN7Pokitto7Display11directPixelEsst>
/home/manga/Projects/Pokitto/PyInSky/builds/1/PokittoLib/POKITTO_CORE/PokittoDisplay.cpp:462
                        directPixel(x + (i<<1)  , y + (j<<1)+1,directbgcolor);
    1586:	b224      	sxth	r4, r4
/home/manga/Projects/Pokitto/PyInSky/builds/1/PokittoLib/POKITTO_CORE/PokittoDisplay.cpp:461
                        directPixel(x + (i<<1)+1, y + (j<<1),directbgcolor);
    1588:	8832      	ldrh	r2, [r6, #0]
    158a:	0039      	movs	r1, r7
    158c:	9805      	ldr	r0, [sp, #20]
    158e:	f7ff fe77 	bl	1280 <_ZN7Pokitto7Display11directPixelEsst>
/home/manga/Projects/Pokitto/PyInSky/builds/1/PokittoLib/POKITTO_CORE/PokittoDisplay.cpp:462
                        directPixel(x + (i<<1)  , y + (j<<1)+1,directbgcolor);
    1592:	8832      	ldrh	r2, [r6, #0]
    1594:	0021      	movs	r1, r4
    1596:	9806      	ldr	r0, [sp, #24]
    1598:	f7ff fe72 	bl	1280 <_ZN7Pokitto7Display11directPixelEsst>
/home/manga/Projects/Pokitto/PyInSky/builds/1/PokittoLib/POKITTO_CORE/PokittoDisplay.cpp:463
                        directPixel(x + (i<<1)+1, y + (j<<1)+1,directbgcolor);
    159c:	0021      	movs	r1, r4
    159e:	8832      	ldrh	r2, [r6, #0]
    15a0:	9805      	ldr	r0, [sp, #20]
/home/manga/Projects/Pokitto/PyInSky/builds/1/PokittoLib/POKITTO_CORE/PokittoDisplay.cpp:466
                        else directPixel(x + i, y + j,directbgcolor);
    15a2:	f7ff fe6d 	bl	1280 <_ZN7Pokitto7Display11directPixelEsst>
/home/manga/Projects/Pokitto/PyInSky/builds/1/PokittoLib/POKITTO_CORE/PokittoDisplay.cpp:469 (discriminator 2)
                bitcolumn>>=1;
    15a6:	9b04      	ldr	r3, [sp, #16]
    15a8:	085b      	lsrs	r3, r3, #1
    15aa:	9304      	str	r3, [sp, #16]
    15ac:	9b01      	ldr	r3, [sp, #4]
    15ae:	3301      	adds	r3, #1
    15b0:	b25b      	sxtb	r3, r3
    15b2:	e7cd      	b.n	1550 <_ZN7Pokitto7Display10directCharEsst+0x70>
/home/manga/Projects/Pokitto/PyInSky/builds/1/PokittoLib/POKITTO_CORE/PokittoDisplay.cpp:445 (discriminator 1)
            if (hbytes == 2) bitcolumn |= (*bitmap++)<<8; // add second byte for 16 bit high fonts
    15b4:	1c93      	adds	r3, r2, #2
    15b6:	9307      	str	r3, [sp, #28]
    15b8:	7853      	ldrb	r3, [r2, #1]
    15ba:	021b      	lsls	r3, r3, #8
    15bc:	430b      	orrs	r3, r1
    15be:	e7b7      	b.n	1530 <_ZN7Pokitto7Display10directCharEsst+0x50>
/home/manga/Projects/Pokitto/PyInSky/builds/1/PokittoLib/POKITTO_CORE/PokittoDisplay.cpp:458
                } else if (directbgcolor != invisiblecolor) {
    15c0:	4e18      	ldr	r6, [pc, #96]	; (1624 <_ZN7Pokitto7Display10directCharEsst+0x144>)
    15c2:	4919      	ldr	r1, [pc, #100]	; (1628 <_ZN7Pokitto7Display10directCharEsst+0x148>)
    15c4:	8832      	ldrh	r2, [r6, #0]
    15c6:	8809      	ldrh	r1, [r1, #0]
    15c8:	4291      	cmp	r1, r2
    15ca:	d0ec      	beq.n	15a6 <_ZN7Pokitto7Display10directCharEsst+0xc6>
    15cc:	4669      	mov	r1, sp
    15ce:	4668      	mov	r0, sp
    15d0:	8d09      	ldrh	r1, [r1, #40]	; 0x28
    15d2:	8884      	ldrh	r4, [r0, #4]
    15d4:	e7cc      	b.n	1570 <_ZN7Pokitto7Display10directCharEsst+0x90>
/home/manga/Projects/Pokitto/PyInSky/builds/1/PokittoLib/POKITTO_CORE/PokittoDisplay.cpp:465
                        if(directtextrotated) directPixel(y + h - j - 1, x + i,directbgcolor);
    15d6:	4815      	ldr	r0, [pc, #84]	; (162c <_ZN7Pokitto7Display10directCharEsst+0x14c>)
    15d8:	9b03      	ldr	r3, [sp, #12]
    15da:	7800      	ldrb	r0, [r0, #0]
    15dc:	195b      	adds	r3, r3, r5
    15de:	b21b      	sxth	r3, r3
    15e0:	2800      	cmp	r0, #0
    15e2:	d006      	beq.n	15f2 <_ZN7Pokitto7Display10directCharEsst+0x112>
/home/manga/Projects/Pokitto/PyInSky/builds/1/PokittoLib/POKITTO_CORE/PokittoDisplay.cpp:465 (discriminator 1)
    15e4:	9802      	ldr	r0, [sp, #8]
    15e6:	3801      	subs	r0, #1
    15e8:	1809      	adds	r1, r1, r0
    15ea:	1b09      	subs	r1, r1, r4
    15ec:	b208      	sxth	r0, r1
    15ee:	0019      	movs	r1, r3
    15f0:	e7d7      	b.n	15a2 <_ZN7Pokitto7Display10directCharEsst+0xc2>
/home/manga/Projects/Pokitto/PyInSky/builds/1/PokittoLib/POKITTO_CORE/PokittoDisplay.cpp:466
                        else directPixel(x + i, y + j,directbgcolor);
    15f2:	1909      	adds	r1, r1, r4
    15f4:	b209      	sxth	r1, r1
    15f6:	0018      	movs	r0, r3
    15f8:	e7d3      	b.n	15a2 <_ZN7Pokitto7Display10directCharEsst+0xc2>
    15fa:	3501      	adds	r5, #1
    15fc:	b2ad      	uxth	r5, r5
/home/manga/Projects/Pokitto/PyInSky/builds/1/PokittoLib/POKITTO_CORE/PokittoDisplay.cpp:443 (discriminator 2)
	for (i = 0; i < numBytes; i++) {
    15fe:	9a07      	ldr	r2, [sp, #28]
    1600:	e78b      	b.n	151a <_ZN7Pokitto7Display10directCharEsst+0x3a>
/home/manga/Projects/Pokitto/PyInSky/builds/1/PokittoLib/POKITTO_CORE/PokittoDisplay.cpp:472
    return (numBytes+adjustCharStep)*fontSize; // for character stepping
    1602:	4b0b      	ldr	r3, [pc, #44]	; (1630 <_ZN7Pokitto7Display10directCharEsst+0x150>)
    1604:	9a09      	ldr	r2, [sp, #36]	; 0x24
    1606:	781b      	ldrb	r3, [r3, #0]
    1608:	b25b      	sxtb	r3, r3
    160a:	189b      	adds	r3, r3, r2
    160c:	4a03      	ldr	r2, [pc, #12]	; (161c <_ZN7Pokitto7Display10directCharEsst+0x13c>)
    160e:	7810      	ldrb	r0, [r2, #0]
    1610:	4358      	muls	r0, r3
/home/manga/Projects/Pokitto/PyInSky/builds/1/PokittoLib/POKITTO_CORE/PokittoDisplay.cpp:473
}
    1612:	b00d      	add	sp, #52	; 0x34
    1614:	bdf0      	pop	{r4, r5, r6, r7, pc}
    1616:	46c0      	nop			; (mov r8, r8)
    1618:	100015b4 	.word	0x100015b4
    161c:	10000116 	.word	0x10000116
    1620:	10000106 	.word	0x10000106
    1624:	100015a2 	.word	0x100015a2
    1628:	1000010a 	.word	0x1000010a
    162c:	100015ac 	.word	0x100015ac
    1630:	10000108 	.word	0x10000108

00001634 <_ZN7Pokitto7Display10bufferCharEsst>:
_ZN7Pokitto7Display10bufferCharEsst():
/home/manga/Projects/Pokitto/PyInSky/builds/1/PokittoLib/POKITTO_CORE/PokittoDisplay.cpp:475
int Display::bufferChar(int16_t x, int16_t y, uint16_t index){
    1634:	b5f0      	push	{r4, r5, r6, r7, lr}
    1636:	0007      	movs	r7, r0
/home/manga/Projects/Pokitto/PyInSky/builds/1/PokittoLib/POKITTO_CORE/PokittoDisplay.cpp:480
	if (h==8 || h==16) xtra=0; //don't add if exactly on byte limit
    1638:	20f7      	movs	r0, #247	; 0xf7
/home/manga/Projects/Pokitto/PyInSky/builds/1/PokittoLib/POKITTO_CORE/PokittoDisplay.cpp:476
    const uint8_t* bitmap = font;
    163a:	4b6a      	ldr	r3, [pc, #424]	; (17e4 <_ZN7Pokitto7Display10bufferCharEsst+0x1b0>)
/home/manga/Projects/Pokitto/PyInSky/builds/1/PokittoLib/POKITTO_CORE/PokittoDisplay.cpp:475
int Display::bufferChar(int16_t x, int16_t y, uint16_t index){
    163c:	b091      	sub	sp, #68	; 0x44
/home/manga/Projects/Pokitto/PyInSky/builds/1/PokittoLib/POKITTO_CORE/PokittoDisplay.cpp:476
    const uint8_t* bitmap = font;
    163e:	681b      	ldr	r3, [r3, #0]
/home/manga/Projects/Pokitto/PyInSky/builds/1/PokittoLib/POKITTO_CORE/PokittoDisplay.cpp:475
int Display::bufferChar(int16_t x, int16_t y, uint16_t index){
    1640:	9105      	str	r1, [sp, #20]
/home/manga/Projects/Pokitto/PyInSky/builds/1/PokittoLib/POKITTO_CORE/PokittoDisplay.cpp:478
	uint8_t h = *(bitmap + 1);
    1642:	7859      	ldrb	r1, [r3, #1]
    1644:	9101      	str	r1, [sp, #4]
/home/manga/Projects/Pokitto/PyInSky/builds/1/PokittoLib/POKITTO_CORE/PokittoDisplay.cpp:480
	if (h==8 || h==16) xtra=0; //don't add if exactly on byte limit
    1646:	3908      	subs	r1, #8
    1648:	4001      	ands	r1, r0
    164a:	1e48      	subs	r0, r1, #1
    164c:	4181      	sbcs	r1, r0
/home/manga/Projects/Pokitto/PyInSky/builds/1/PokittoLib/POKITTO_CORE/PokittoDisplay.cpp:481
	hbytes=(h>>3)+xtra; //GLCD fonts are arranged w+1 times h/8 bytes
    164e:	9801      	ldr	r0, [sp, #4]
    1650:	10c0      	asrs	r0, r0, #3
    1652:	1809      	adds	r1, r1, r0
    1654:	9106      	str	r1, [sp, #24]
/home/manga/Projects/Pokitto/PyInSky/builds/1/PokittoLib/POKITTO_CORE/PokittoDisplay.cpp:483
	bitmap = bitmap + 4 + index * (w * hbytes + 1); //add an offset to the pointer (fonts !)
    1656:	9806      	ldr	r0, [sp, #24]
    1658:	7819      	ldrb	r1, [r3, #0]
    165a:	4348      	muls	r0, r1
    165c:	3001      	adds	r0, #1
    165e:	4342      	muls	r2, r0
    1660:	3204      	adds	r2, #4
    1662:	189a      	adds	r2, r3, r2
/home/manga/Projects/Pokitto/PyInSky/builds/1/PokittoLib/POKITTO_CORE/PokittoDisplay.cpp:486
    numBytes = *bitmap++; //first byte of char is the width in bytes
    1664:	1c53      	adds	r3, r2, #1
    1666:	7812      	ldrb	r2, [r2, #0]
    1668:	b252      	sxtb	r2, r2
    166a:	9203      	str	r2, [sp, #12]
    166c:	4a5e      	ldr	r2, [pc, #376]	; (17e8 <_ZN7Pokitto7Display10bufferCharEsst+0x1b4>)
    166e:	8814      	ldrh	r4, [r2, #0]
    1670:	4a5e      	ldr	r2, [pc, #376]	; (17ec <_ZN7Pokitto7Display10bufferCharEsst+0x1b8>)
    1672:	8810      	ldrh	r0, [r2, #0]
/home/manga/Projects/Pokitto/PyInSky/builds/1/PokittoLib/POKITTO_CORE/PokittoDisplay.cpp:492
    if( x>=0 && y >= 0 && x+w<width && y+h<height ){
    1674:	2f00      	cmp	r7, #0
    1676:	db68      	blt.n	174a <_ZN7Pokitto7Display10bufferCharEsst+0x116>
/home/manga/Projects/Pokitto/PyInSky/builds/1/PokittoLib/POKITTO_CORE/PokittoDisplay.cpp:492 (discriminator 1)
    1678:	9a05      	ldr	r2, [sp, #20]
    167a:	2a00      	cmp	r2, #0
    167c:	db65      	blt.n	174a <_ZN7Pokitto7Display10bufferCharEsst+0x116>
/home/manga/Projects/Pokitto/PyInSky/builds/1/PokittoLib/POKITTO_CORE/PokittoDisplay.cpp:492 (discriminator 2)
    167e:	4a5c      	ldr	r2, [pc, #368]	; (17f0 <_ZN7Pokitto7Display10bufferCharEsst+0x1bc>)
    1680:	1879      	adds	r1, r7, r1
    1682:	7812      	ldrb	r2, [r2, #0]
    1684:	4291      	cmp	r1, r2
    1686:	da60      	bge.n	174a <_ZN7Pokitto7Display10bufferCharEsst+0x116>
/home/manga/Projects/Pokitto/PyInSky/builds/1/PokittoLib/POKITTO_CORE/PokittoDisplay.cpp:492 (discriminator 3)
    1688:	9901      	ldr	r1, [sp, #4]
    168a:	9a05      	ldr	r2, [sp, #20]
    168c:	1852      	adds	r2, r2, r1
    168e:	4959      	ldr	r1, [pc, #356]	; (17f4 <_ZN7Pokitto7Display10bufferCharEsst+0x1c0>)
    1690:	7809      	ldrb	r1, [r1, #0]
    1692:	428a      	cmp	r2, r1
    1694:	da59      	bge.n	174a <_ZN7Pokitto7Display10bufferCharEsst+0x116>
/home/manga/Projects/Pokitto/PyInSky/builds/1/PokittoLib/POKITTO_CORE/PokittoDisplay.cpp:494
	    drawPixelFG = &Display::drawPixelRaw;
    1696:	4a58      	ldr	r2, [pc, #352]	; (17f8 <_ZN7Pokitto7Display10bufferCharEsst+0x1c4>)
/home/manga/Projects/Pokitto/PyInSky/builds/1/PokittoLib/POKITTO_CORE/PokittoDisplay.cpp:493
	if( color != invisiblecolor )
    1698:	4284      	cmp	r4, r0
    169a:	d100      	bne.n	169e <_ZN7Pokitto7Display10bufferCharEsst+0x6a>
/home/manga/Projects/Pokitto/PyInSky/builds/1/PokittoLib/POKITTO_CORE/PokittoDisplay.cpp:490
    void (*drawPixelFG)(int16_t,int16_t, uint8_t) = &Display::drawPixelNOP;
    169c:	4a57      	ldr	r2, [pc, #348]	; (17fc <_ZN7Pokitto7Display10bufferCharEsst+0x1c8>)
/home/manga/Projects/Pokitto/PyInSky/builds/1/PokittoLib/POKITTO_CORE/PokittoDisplay.cpp:495
	if( bgcolor != invisiblecolor )
    169e:	4958      	ldr	r1, [pc, #352]	; (1800 <_ZN7Pokitto7Display10bufferCharEsst+0x1cc>)
    16a0:	880d      	ldrh	r5, [r1, #0]
/home/manga/Projects/Pokitto/PyInSky/builds/1/PokittoLib/POKITTO_CORE/PokittoDisplay.cpp:496
	    drawPixelBG = &Display::drawPixelRaw;
    16a2:	4955      	ldr	r1, [pc, #340]	; (17f8 <_ZN7Pokitto7Display10bufferCharEsst+0x1c4>)
/home/manga/Projects/Pokitto/PyInSky/builds/1/PokittoLib/POKITTO_CORE/PokittoDisplay.cpp:500
	if( bgcolor != invisiblecolor )
    16a4:	4285      	cmp	r5, r0
    16a6:	d100      	bne.n	16aa <_ZN7Pokitto7Display10bufferCharEsst+0x76>
/home/manga/Projects/Pokitto/PyInSky/builds/1/PokittoLib/POKITTO_CORE/PokittoDisplay.cpp:491
    void (*drawPixelBG)(int16_t,int16_t, uint8_t) = &Display::drawPixelNOP;
    16a8:	4954      	ldr	r1, [pc, #336]	; (17fc <_ZN7Pokitto7Display10bufferCharEsst+0x1c8>)
/home/manga/Projects/Pokitto/PyInSky/builds/1/PokittoLib/POKITTO_CORE/PokittoDisplay.cpp:504
    void (*drawPixel[])(int16_t,int16_t, uint8_t) = {drawPixelBG, drawPixelFG};
    16aa:	910e      	str	r1, [sp, #56]	; 0x38
/home/manga/Projects/Pokitto/PyInSky/builds/1/PokittoLib/POKITTO_CORE/PokittoDisplay.cpp:505
    uint8_t colors[] = {bgcolor, color};
    16ac:	4954      	ldr	r1, [pc, #336]	; (1800 <_ZN7Pokitto7Display10bufferCharEsst+0x1cc>)
/home/manga/Projects/Pokitto/PyInSky/builds/1/PokittoLib/POKITTO_CORE/PokittoDisplay.cpp:504
    void (*drawPixel[])(int16_t,int16_t, uint8_t) = {drawPixelBG, drawPixelFG};
    16ae:	920f      	str	r2, [sp, #60]	; 0x3c
/home/manga/Projects/Pokitto/PyInSky/builds/1/PokittoLib/POKITTO_CORE/PokittoDisplay.cpp:505
    uint8_t colors[] = {bgcolor, color};
    16b0:	8809      	ldrh	r1, [r1, #0]
    16b2:	aa0d      	add	r2, sp, #52	; 0x34
    16b4:	7011      	strb	r1, [r2, #0]
    16b6:	7054      	strb	r4, [r2, #1]
/home/manga/Projects/Pokitto/PyInSky/builds/1/PokittoLib/POKITTO_CORE/PokittoDisplay.cpp:509
    if( fontSize != 2 ){
    16b8:	4a52      	ldr	r2, [pc, #328]	; (1804 <_ZN7Pokitto7Display10bufferCharEsst+0x1d0>)
    16ba:	003d      	movs	r5, r7
    16bc:	7812      	ldrb	r2, [r2, #0]
    16be:	2a02      	cmp	r2, #2
    16c0:	d154      	bne.n	176c <_ZN7Pokitto7Display10bufferCharEsst+0x138>
/home/manga/Projects/Pokitto/PyInSky/builds/1/PokittoLib/POKITTO_CORE/PokittoDisplay.cpp:554
	for (i = 0; i < numBytes; i++) {
    16c2:	2200      	movs	r2, #0
    16c4:	b2bf      	uxth	r7, r7
    16c6:	9207      	str	r2, [sp, #28]
/home/manga/Projects/Pokitto/PyInSky/builds/1/PokittoLib/POKITTO_CORE/PokittoDisplay.cpp:554 (discriminator 1)
    16c8:	9a07      	ldr	r2, [sp, #28]
    16ca:	9903      	ldr	r1, [sp, #12]
    16cc:	428a      	cmp	r2, r1
    16ce:	db00      	blt.n	16d2 <_ZN7Pokitto7Display10bufferCharEsst+0x9e>
    16d0:	e081      	b.n	17d6 <_ZN7Pokitto7Display10bufferCharEsst+0x1a2>
/home/manga/Projects/Pokitto/PyInSky/builds/1/PokittoLib/POKITTO_CORE/PokittoDisplay.cpp:556
	    if (hbytes == 2) bitcolumn |= (*bitmap++)<<8; // add second byte for 16 bit high fonts
    16d2:	9906      	ldr	r1, [sp, #24]
/home/manga/Projects/Pokitto/PyInSky/builds/1/PokittoLib/POKITTO_CORE/PokittoDisplay.cpp:555
	    bitcolumn = *bitmap++;
    16d4:	781a      	ldrb	r2, [r3, #0]
/home/manga/Projects/Pokitto/PyInSky/builds/1/PokittoLib/POKITTO_CORE/PokittoDisplay.cpp:556
	    if (hbytes == 2) bitcolumn |= (*bitmap++)<<8; // add second byte for 16 bit high fonts
    16d6:	2902      	cmp	r1, #2
    16d8:	d100      	bne.n	16dc <_ZN7Pokitto7Display10bufferCharEsst+0xa8>
    16da:	e06e      	b.n	17ba <_ZN7Pokitto7Display10bufferCharEsst+0x186>
/home/manga/Projects/Pokitto/PyInSky/builds/1/PokittoLib/POKITTO_CORE/PokittoDisplay.cpp:555
	    bitcolumn = *bitmap++;
    16dc:	3301      	adds	r3, #1
    16de:	930a      	str	r3, [sp, #40]	; 0x28
    16e0:	b293      	uxth	r3, r2
/home/manga/Projects/Pokitto/PyInSky/builds/1/PokittoLib/POKITTO_CORE/PokittoDisplay.cpp:556 (discriminator 1)
	    if (hbytes == 2) bitcolumn |= (*bitmap++)<<8; // add second byte for 16 bit high fonts
    16e2:	9302      	str	r3, [sp, #8]
/home/manga/Projects/Pokitto/PyInSky/builds/1/PokittoLib/POKITTO_CORE/PokittoDisplay.cpp:560 (discriminator 1)
		drawPixel[ bitcolumn&1 ](x + (i<<1)  , y + (j<<1), c);
    16e4:	b23b      	sxth	r3, r7
    16e6:	9308      	str	r3, [sp, #32]
    16e8:	1c7b      	adds	r3, r7, #1
    16ea:	b21b      	sxth	r3, r3
    16ec:	930b      	str	r3, [sp, #44]	; 0x2c
/home/manga/Projects/Pokitto/PyInSky/builds/1/PokittoLib/POKITTO_CORE/PokittoDisplay.cpp:557 (discriminator 1)
	    for (j = 0; j <= h; j++) { // was j<=h
    16ee:	2300      	movs	r3, #0
/home/manga/Projects/Pokitto/PyInSky/builds/1/PokittoLib/POKITTO_CORE/PokittoDisplay.cpp:557
    16f0:	9304      	str	r3, [sp, #16]
    16f2:	9a04      	ldr	r2, [sp, #16]
    16f4:	9b01      	ldr	r3, [sp, #4]
    16f6:	4293      	cmp	r3, r2
    16f8:	db65      	blt.n	17c6 <_ZN7Pokitto7Display10bufferCharEsst+0x192>
/home/manga/Projects/Pokitto/PyInSky/builds/1/PokittoLib/POKITTO_CORE/PokittoDisplay.cpp:558 (discriminator 2)
		uint8_t c = colors[ bitcolumn & 1 ];
    16fa:	2201      	movs	r2, #1
    16fc:	9b02      	ldr	r3, [sp, #8]
/home/manga/Projects/Pokitto/PyInSky/builds/1/PokittoLib/POKITTO_CORE/PokittoDisplay.cpp:560 (discriminator 2)
		drawPixel[ bitcolumn&1 ](x + (i<<1)  , y + (j<<1), c);
    16fe:	9808      	ldr	r0, [sp, #32]
/home/manga/Projects/Pokitto/PyInSky/builds/1/PokittoLib/POKITTO_CORE/PokittoDisplay.cpp:558 (discriminator 2)
		uint8_t c = colors[ bitcolumn & 1 ];
    1700:	4013      	ands	r3, r2
    1702:	aa0d      	add	r2, sp, #52	; 0x34
    1704:	5cd6      	ldrb	r6, [r2, r3]
/home/manga/Projects/Pokitto/PyInSky/builds/1/PokittoLib/POKITTO_CORE/PokittoDisplay.cpp:560 (discriminator 2)
		drawPixel[ bitcolumn&1 ](x + (i<<1)  , y + (j<<1), c);
    1706:	009b      	lsls	r3, r3, #2
    1708:	aa0e      	add	r2, sp, #56	; 0x38
    170a:	589d      	ldr	r5, [r3, r2]
    170c:	9b04      	ldr	r3, [sp, #16]
    170e:	0032      	movs	r2, r6
    1710:	005c      	lsls	r4, r3, #1
    1712:	9b05      	ldr	r3, [sp, #20]
    1714:	18e4      	adds	r4, r4, r3
    1716:	b2a4      	uxth	r4, r4
    1718:	b223      	sxth	r3, r4
    171a:	0019      	movs	r1, r3
/home/manga/Projects/Pokitto/PyInSky/builds/1/PokittoLib/POKITTO_CORE/PokittoDisplay.cpp:562 (discriminator 2)
		drawPixel[ bitcolumn&1 ](x + (i<<1)  , y + (j<<1)+1, c);
    171c:	3401      	adds	r4, #1
/home/manga/Projects/Pokitto/PyInSky/builds/1/PokittoLib/POKITTO_CORE/PokittoDisplay.cpp:560 (discriminator 2)
		drawPixel[ bitcolumn&1 ](x + (i<<1)  , y + (j<<1), c);
    171e:	9309      	str	r3, [sp, #36]	; 0x24
/home/manga/Projects/Pokitto/PyInSky/builds/1/PokittoLib/POKITTO_CORE/PokittoDisplay.cpp:562 (discriminator 2)
		drawPixel[ bitcolumn&1 ](x + (i<<1)  , y + (j<<1)+1, c);
    1720:	b224      	sxth	r4, r4
/home/manga/Projects/Pokitto/PyInSky/builds/1/PokittoLib/POKITTO_CORE/PokittoDisplay.cpp:560 (discriminator 2)
		drawPixel[ bitcolumn&1 ](x + (i<<1)  , y + (j<<1), c);
    1722:	47a8      	blx	r5
/home/manga/Projects/Pokitto/PyInSky/builds/1/PokittoLib/POKITTO_CORE/PokittoDisplay.cpp:561 (discriminator 2)
		drawPixel[ bitcolumn&1 ](x + (i<<1)+1, y + (j<<1), c);
    1724:	0032      	movs	r2, r6
    1726:	9909      	ldr	r1, [sp, #36]	; 0x24
    1728:	980b      	ldr	r0, [sp, #44]	; 0x2c
    172a:	47a8      	blx	r5
/home/manga/Projects/Pokitto/PyInSky/builds/1/PokittoLib/POKITTO_CORE/PokittoDisplay.cpp:562 (discriminator 2)
		drawPixel[ bitcolumn&1 ](x + (i<<1)  , y + (j<<1)+1, c);
    172c:	0032      	movs	r2, r6
    172e:	0021      	movs	r1, r4
    1730:	9808      	ldr	r0, [sp, #32]
    1732:	47a8      	blx	r5
/home/manga/Projects/Pokitto/PyInSky/builds/1/PokittoLib/POKITTO_CORE/PokittoDisplay.cpp:563 (discriminator 2)
		drawPixel[ bitcolumn&1 ](x + (i<<1)+1, y + (j<<1)+1, c);
    1734:	0032      	movs	r2, r6
    1736:	0021      	movs	r1, r4
    1738:	980b      	ldr	r0, [sp, #44]	; 0x2c
    173a:	47a8      	blx	r5
/home/manga/Projects/Pokitto/PyInSky/builds/1/PokittoLib/POKITTO_CORE/PokittoDisplay.cpp:564 (discriminator 2)
		bitcolumn>>=1;
    173c:	9b02      	ldr	r3, [sp, #8]
    173e:	085b      	lsrs	r3, r3, #1
    1740:	9302      	str	r3, [sp, #8]
    1742:	9b04      	ldr	r3, [sp, #16]
    1744:	3301      	adds	r3, #1
    1746:	b25b      	sxtb	r3, r3
    1748:	e7d2      	b.n	16f0 <_ZN7Pokitto7Display10bufferCharEsst+0xbc>
/home/manga/Projects/Pokitto/PyInSky/builds/1/PokittoLib/POKITTO_CORE/PokittoDisplay.cpp:499
	    drawPixelFG = &Display::drawPixel;
    174a:	4a2f      	ldr	r2, [pc, #188]	; (1808 <_ZN7Pokitto7Display10bufferCharEsst+0x1d4>)
/home/manga/Projects/Pokitto/PyInSky/builds/1/PokittoLib/POKITTO_CORE/PokittoDisplay.cpp:498
	if( color != invisiblecolor )
    174c:	4284      	cmp	r4, r0
    174e:	d100      	bne.n	1752 <_ZN7Pokitto7Display10bufferCharEsst+0x11e>
/home/manga/Projects/Pokitto/PyInSky/builds/1/PokittoLib/POKITTO_CORE/PokittoDisplay.cpp:490
    void (*drawPixelFG)(int16_t,int16_t, uint8_t) = &Display::drawPixelNOP;
    1750:	4a2a      	ldr	r2, [pc, #168]	; (17fc <_ZN7Pokitto7Display10bufferCharEsst+0x1c8>)
/home/manga/Projects/Pokitto/PyInSky/builds/1/PokittoLib/POKITTO_CORE/PokittoDisplay.cpp:500
	if( bgcolor != invisiblecolor )
    1752:	492b      	ldr	r1, [pc, #172]	; (1800 <_ZN7Pokitto7Display10bufferCharEsst+0x1cc>)
    1754:	880d      	ldrh	r5, [r1, #0]
/home/manga/Projects/Pokitto/PyInSky/builds/1/PokittoLib/POKITTO_CORE/PokittoDisplay.cpp:501
	    drawPixelBG = &Display::drawPixel;
    1756:	492c      	ldr	r1, [pc, #176]	; (1808 <_ZN7Pokitto7Display10bufferCharEsst+0x1d4>)
    1758:	e7a4      	b.n	16a4 <_ZN7Pokitto7Display10bufferCharEsst+0x70>
/home/manga/Projects/Pokitto/PyInSky/builds/1/PokittoLib/POKITTO_CORE/PokittoDisplay.cpp:514 (discriminator 1)
	if (hbytes == 2) bitcolumn |= (*bitmap++)<<8; // add second byte for 16 bit high fonts
    175a:	1c9a      	adds	r2, r3, #2
    175c:	785b      	ldrb	r3, [r3, #1]
    175e:	9202      	str	r2, [sp, #8]
    1760:	021b      	lsls	r3, r3, #8
    1762:	431c      	orrs	r4, r3
    1764:	e00e      	b.n	1784 <_ZN7Pokitto7Display10bufferCharEsst+0x150>
    1766:	3501      	adds	r5, #1
/home/manga/Projects/Pokitto/PyInSky/builds/1/PokittoLib/POKITTO_CORE/PokittoDisplay.cpp:512 (discriminator 2)
    for (i = 0; i < numBytes; i++) {
    1768:	9b02      	ldr	r3, [sp, #8]
    176a:	b22d      	sxth	r5, r5
/home/manga/Projects/Pokitto/PyInSky/builds/1/PokittoLib/POKITTO_CORE/PokittoDisplay.cpp:512 (discriminator 1)
    176c:	1bea      	subs	r2, r5, r7
    176e:	9903      	ldr	r1, [sp, #12]
    1770:	b252      	sxtb	r2, r2
    1772:	4291      	cmp	r1, r2
    1774:	dd1a      	ble.n	17ac <_ZN7Pokitto7Display10bufferCharEsst+0x178>
/home/manga/Projects/Pokitto/PyInSky/builds/1/PokittoLib/POKITTO_CORE/PokittoDisplay.cpp:514
	if (hbytes == 2) bitcolumn |= (*bitmap++)<<8; // add second byte for 16 bit high fonts
    1776:	9a06      	ldr	r2, [sp, #24]
/home/manga/Projects/Pokitto/PyInSky/builds/1/PokittoLib/POKITTO_CORE/PokittoDisplay.cpp:513
	bitcolumn = *bitmap++;
    1778:	781c      	ldrb	r4, [r3, #0]
/home/manga/Projects/Pokitto/PyInSky/builds/1/PokittoLib/POKITTO_CORE/PokittoDisplay.cpp:514
	if (hbytes == 2) bitcolumn |= (*bitmap++)<<8; // add second byte for 16 bit high fonts
    177a:	2a02      	cmp	r2, #2
    177c:	d0ed      	beq.n	175a <_ZN7Pokitto7Display10bufferCharEsst+0x126>
/home/manga/Projects/Pokitto/PyInSky/builds/1/PokittoLib/POKITTO_CORE/PokittoDisplay.cpp:513
	bitcolumn = *bitmap++;
    177e:	3301      	adds	r3, #1
    1780:	9302      	str	r3, [sp, #8]
    1782:	b2a4      	uxth	r4, r4
/home/manga/Projects/Pokitto/PyInSky/builds/1/PokittoLib/POKITTO_CORE/PokittoDisplay.cpp:515
	for (j = 0; j <= h; j++) { // was j<=h
    1784:	2600      	movs	r6, #0
/home/manga/Projects/Pokitto/PyInSky/builds/1/PokittoLib/POKITTO_CORE/PokittoDisplay.cpp:515 (discriminator 3)
    1786:	9b01      	ldr	r3, [sp, #4]
    1788:	42b3      	cmp	r3, r6
    178a:	dbec      	blt.n	1766 <_ZN7Pokitto7Display10bufferCharEsst+0x132>
/home/manga/Projects/Pokitto/PyInSky/builds/1/PokittoLib/POKITTO_CORE/PokittoDisplay.cpp:516 (discriminator 2)
	    uint8_t c = colors[ bitcolumn & 1 ];
    178c:	2301      	movs	r3, #1
/home/manga/Projects/Pokitto/PyInSky/builds/1/PokittoLib/POKITTO_CORE/PokittoDisplay.cpp:529 (discriminator 2)
	    drawPixel[ bitcolumn&1 ](x, y + j,c);
    178e:	9905      	ldr	r1, [sp, #20]
/home/manga/Projects/Pokitto/PyInSky/builds/1/PokittoLib/POKITTO_CORE/PokittoDisplay.cpp:516 (discriminator 2)
	    uint8_t c = colors[ bitcolumn & 1 ];
    1790:	4023      	ands	r3, r4
    1792:	aa0d      	add	r2, sp, #52	; 0x34
/home/manga/Projects/Pokitto/PyInSky/builds/1/PokittoLib/POKITTO_CORE/PokittoDisplay.cpp:529 (discriminator 2)
	    drawPixel[ bitcolumn&1 ](x, y + j,c);
    1794:	5cd2      	ldrb	r2, [r2, r3]
    1796:	1871      	adds	r1, r6, r1
    1798:	a80e      	add	r0, sp, #56	; 0x38
    179a:	009b      	lsls	r3, r3, #2
    179c:	581b      	ldr	r3, [r3, r0]
    179e:	b209      	sxth	r1, r1
    17a0:	0028      	movs	r0, r5
    17a2:	3601      	adds	r6, #1
    17a4:	4798      	blx	r3
/home/manga/Projects/Pokitto/PyInSky/builds/1/PokittoLib/POKITTO_CORE/PokittoDisplay.cpp:531 (discriminator 2)
	    bitcolumn>>=1;
    17a6:	0864      	lsrs	r4, r4, #1
    17a8:	b276      	sxtb	r6, r6
/home/manga/Projects/Pokitto/PyInSky/builds/1/PokittoLib/POKITTO_CORE/PokittoDisplay.cpp:515 (discriminator 2)
	for (j = 0; j <= h; j++) { // was j<=h
    17aa:	e7ec      	b.n	1786 <_ZN7Pokitto7Display10bufferCharEsst+0x152>
/home/manga/Projects/Pokitto/PyInSky/builds/1/PokittoLib/POKITTO_CORE/PokittoDisplay.cpp:546
    return numBytes+adjustCharStep;
    17ac:	2000      	movs	r0, #0
    17ae:	4b17      	ldr	r3, [pc, #92]	; (180c <_ZN7Pokitto7Display10bufferCharEsst+0x1d8>)
    17b0:	5618      	ldrsb	r0, [r3, r0]
    17b2:	9b03      	ldr	r3, [sp, #12]
    17b4:	18c0      	adds	r0, r0, r3
/home/manga/Projects/Pokitto/PyInSky/builds/1/PokittoLib/POKITTO_CORE/PokittoDisplay.cpp:574
}
    17b6:	b011      	add	sp, #68	; 0x44
    17b8:	bdf0      	pop	{r4, r5, r6, r7, pc}
/home/manga/Projects/Pokitto/PyInSky/builds/1/PokittoLib/POKITTO_CORE/PokittoDisplay.cpp:556 (discriminator 1)
	    if (hbytes == 2) bitcolumn |= (*bitmap++)<<8; // add second byte for 16 bit high fonts
    17ba:	1c99      	adds	r1, r3, #2
    17bc:	785b      	ldrb	r3, [r3, #1]
    17be:	910a      	str	r1, [sp, #40]	; 0x28
    17c0:	021b      	lsls	r3, r3, #8
    17c2:	4313      	orrs	r3, r2
    17c4:	e78d      	b.n	16e2 <_ZN7Pokitto7Display10bufferCharEsst+0xae>
    17c6:	9b07      	ldr	r3, [sp, #28]
    17c8:	3702      	adds	r7, #2
    17ca:	3301      	adds	r3, #1
    17cc:	b25b      	sxtb	r3, r3
    17ce:	9307      	str	r3, [sp, #28]
    17d0:	b2bf      	uxth	r7, r7
/home/manga/Projects/Pokitto/PyInSky/builds/1/PokittoLib/POKITTO_CORE/PokittoDisplay.cpp:554 (discriminator 2)
	for (i = 0; i < numBytes; i++) {
    17d2:	9b0a      	ldr	r3, [sp, #40]	; 0x28
    17d4:	e778      	b.n	16c8 <_ZN7Pokitto7Display10bufferCharEsst+0x94>
/home/manga/Projects/Pokitto/PyInSky/builds/1/PokittoLib/POKITTO_CORE/PokittoDisplay.cpp:569
	return (numBytes+adjustCharStep)<<1;
    17d6:	2000      	movs	r0, #0
    17d8:	4b0c      	ldr	r3, [pc, #48]	; (180c <_ZN7Pokitto7Display10bufferCharEsst+0x1d8>)
    17da:	5618      	ldrsb	r0, [r3, r0]
    17dc:	9b03      	ldr	r3, [sp, #12]
    17de:	18c0      	adds	r0, r0, r3
    17e0:	0040      	lsls	r0, r0, #1
    17e2:	e7e8      	b.n	17b6 <_ZN7Pokitto7Display10bufferCharEsst+0x182>
    17e4:	100015b4 	.word	0x100015b4
    17e8:	10000112 	.word	0x10000112
    17ec:	1000010a 	.word	0x1000010a
    17f0:	10000114 	.word	0x10000114
    17f4:	10000115 	.word	0x10000115
    17f8:	000011d9 	.word	0x000011d9
    17fc:	000011d5 	.word	0x000011d5
    1800:	100015be 	.word	0x100015be
    1804:	10000116 	.word	0x10000116
    1808:	00001215 	.word	0x00001215
    180c:	10000108 	.word	0x10000108

00001810 <_ZN7Pokitto7Display5clearEv>:
_ZN7Pokitto7Display5clearEv():
/home/manga/Projects/Pokitto/PyInSky/builds/1/PokittoLib/POKITTO_CORE/PokittoDisplay.cpp:576
void Display::clear() {
    1810:	b5f8      	push	{r3, r4, r5, r6, r7, lr}
/home/manga/Projects/Pokitto/PyInSky/builds/1/PokittoLib/POKITTO_CORE/PokittoDisplay.cpp:580
    if (bpp==1 && bgcolor) c=0xFF; // bgcolor !=0, set all pixels
    1812:	4a22      	ldr	r2, [pc, #136]	; (189c <_ZN7Pokitto7Display5clearEv+0x8c>)
/home/manga/Projects/Pokitto/PyInSky/builds/1/PokittoLib/POKITTO_CORE/PokittoDisplay.cpp:579
    c = bgcolor & (PALETTE_SIZE-1) ; //don't let palette go out of bounds
    1814:	4c22      	ldr	r4, [pc, #136]	; (18a0 <_ZN7Pokitto7Display5clearEv+0x90>)
    1816:	4d23      	ldr	r5, [pc, #140]	; (18a4 <_ZN7Pokitto7Display5clearEv+0x94>)
    1818:	8823      	ldrh	r3, [r4, #0]
/home/manga/Projects/Pokitto/PyInSky/builds/1/PokittoLib/POKITTO_CORE/PokittoDisplay.cpp:580
    if (bpp==1 && bgcolor) c=0xFF; // bgcolor !=0, set all pixels
    181a:	7812      	ldrb	r2, [r2, #0]
/home/manga/Projects/Pokitto/PyInSky/builds/1/PokittoLib/POKITTO_CORE/PokittoDisplay.cpp:579
    c = bgcolor & (PALETTE_SIZE-1) ; //don't let palette go out of bounds
    181c:	b2d9      	uxtb	r1, r3
    181e:	6828      	ldr	r0, [r5, #0]
    1820:	4f21      	ldr	r7, [pc, #132]	; (18a8 <_ZN7Pokitto7Display5clearEv+0x98>)
    1822:	4e22      	ldr	r6, [pc, #136]	; (18ac <_ZN7Pokitto7Display5clearEv+0x9c>)
/home/manga/Projects/Pokitto/PyInSky/builds/1/PokittoLib/POKITTO_CORE/PokittoDisplay.cpp:580
    if (bpp==1 && bgcolor) c=0xFF; // bgcolor !=0, set all pixels
    1824:	2a01      	cmp	r2, #1
    1826:	d104      	bne.n	1832 <_ZN7Pokitto7Display5clearEv+0x22>
/home/manga/Projects/Pokitto/PyInSky/builds/1/PokittoLib/POKITTO_CORE/PokittoDisplay.cpp:580 (discriminator 1)
    1828:	1e59      	subs	r1, r3, #1
    182a:	418b      	sbcs	r3, r1
    182c:	4259      	negs	r1, r3
/home/manga/Projects/Pokitto/PyInSky/builds/1/PokittoLib/POKITTO_CORE/PokittoDisplay.cpp:596
        c = (c & 0x0F) | (c << 4);
    182e:	b2c9      	uxtb	r1, r1
    1830:	e007      	b.n	1842 <_ZN7Pokitto7Display5clearEv+0x32>
/home/manga/Projects/Pokitto/PyInSky/builds/1/PokittoLib/POKITTO_CORE/PokittoDisplay.cpp:581
    else if (bpp==2) {
    1832:	2a02      	cmp	r2, #2
    1834:	d107      	bne.n	1846 <_ZN7Pokitto7Display5clearEv+0x36>
/home/manga/Projects/Pokitto/PyInSky/builds/1/PokittoLib/POKITTO_CORE/PokittoDisplay.cpp:582
        c = bgcolor & 0x3;
    1836:	2303      	movs	r3, #3
    1838:	400b      	ands	r3, r1
/home/manga/Projects/Pokitto/PyInSky/builds/1/PokittoLib/POKITTO_CORE/PokittoDisplay.cpp:583
        c = c | (c << 2);
    183a:	0099      	lsls	r1, r3, #2
    183c:	4319      	orrs	r1, r3
/home/manga/Projects/Pokitto/PyInSky/builds/1/PokittoLib/POKITTO_CORE/PokittoDisplay.cpp:584
        c = c | (c << 4);
    183e:	010b      	lsls	r3, r1, #4
    1840:	4319      	orrs	r1, r3
/home/manga/Projects/Pokitto/PyInSky/builds/1/PokittoLib/POKITTO_CORE/PokittoDisplay.cpp:599
    memset((void*)m_scrbuf,c,j);
    1842:	4a1b      	ldr	r2, [pc, #108]	; (18b0 <_ZN7Pokitto7Display5clearEv+0xa0>)
    1844:	e01b      	b.n	187e <_ZN7Pokitto7Display5clearEv+0x6e>
/home/manga/Projects/Pokitto/PyInSky/builds/1/PokittoLib/POKITTO_CORE/PokittoDisplay.cpp:585
    } else if (bpp==3){
    1846:	2a03      	cmp	r2, #3
    1848:	d121      	bne.n	188e <_ZN7Pokitto7Display5clearEv+0x7e>
/home/manga/Projects/Pokitto/PyInSky/builds/1/PokittoLib/POKITTO_CORE/PokittoDisplay.cpp:587
        if (bgcolor & 0x1) memset((void*)m_scrbuf,0xFF,j);// R
    184a:	2101      	movs	r1, #1
    184c:	4a19      	ldr	r2, [pc, #100]	; (18b4 <_ZN7Pokitto7Display5clearEv+0xa4>)
    184e:	4019      	ands	r1, r3
    1850:	d000      	beq.n	1854 <_ZN7Pokitto7Display5clearEv+0x44>
/home/manga/Projects/Pokitto/PyInSky/builds/1/PokittoLib/POKITTO_CORE/PokittoDisplay.cpp:587 (discriminator 1)
    1852:	21ff      	movs	r1, #255	; 0xff
/home/manga/Projects/Pokitto/PyInSky/builds/1/PokittoLib/POKITTO_CORE/PokittoDisplay.cpp:588
        else memset((void*)m_scrbuf,0x00,j);// R
    1854:	f012 fd7a 	bl	1434c <memset>
    1858:	682b      	ldr	r3, [r5, #0]
    185a:	4a16      	ldr	r2, [pc, #88]	; (18b4 <_ZN7Pokitto7Display5clearEv+0xa4>)
/home/manga/Projects/Pokitto/PyInSky/builds/1/PokittoLib/POKITTO_CORE/PokittoDisplay.cpp:589
        if ((bgcolor>>1) & 0x1) memset((void*)m_scrbuf+POK_BITFRAME,0xFF,j);// G
    185c:	8821      	ldrh	r1, [r4, #0]
    185e:	1898      	adds	r0, r3, r2
    1860:	2302      	movs	r3, #2
    1862:	4019      	ands	r1, r3
    1864:	d011      	beq.n	188a <_ZN7Pokitto7Display5clearEv+0x7a>
/home/manga/Projects/Pokitto/PyInSky/builds/1/PokittoLib/POKITTO_CORE/PokittoDisplay.cpp:589 (discriminator 1)
    1866:	21ff      	movs	r1, #255	; 0xff
/home/manga/Projects/Pokitto/PyInSky/builds/1/PokittoLib/POKITTO_CORE/PokittoDisplay.cpp:590
        else memset((void*)m_scrbuf+POK_BITFRAME,0x00,j);// G
    1868:	f012 fd70 	bl	1434c <memset>
    186c:	4b12      	ldr	r3, [pc, #72]	; (18b8 <_ZN7Pokitto7Display5clearEv+0xa8>)
    186e:	6828      	ldr	r0, [r5, #0]
/home/manga/Projects/Pokitto/PyInSky/builds/1/PokittoLib/POKITTO_CORE/PokittoDisplay.cpp:591
        if ((bgcolor>>2) & 0x1) memset((void*)m_scrbuf+POK_BITFRAME*2,0xFF,j);// B
    1870:	8821      	ldrh	r1, [r4, #0]
    1872:	18c0      	adds	r0, r0, r3
    1874:	2304      	movs	r3, #4
    1876:	4a0f      	ldr	r2, [pc, #60]	; (18b4 <_ZN7Pokitto7Display5clearEv+0xa4>)
    1878:	4019      	ands	r1, r3
    187a:	d000      	beq.n	187e <_ZN7Pokitto7Display5clearEv+0x6e>
/home/manga/Projects/Pokitto/PyInSky/builds/1/PokittoLib/POKITTO_CORE/PokittoDisplay.cpp:591 (discriminator 1)
    187c:	21ff      	movs	r1, #255	; 0xff
